
;CodeVisionAVR C Compiler V3.12 Advanced
;(C) Copyright 1998-2014 Pavel Haiduc, HP InfoTech s.r.l.
;http://www.hpinfotech.com

;Build configuration    : Debug
;Chip type              : ATmega32
;Program type           : Application
;Clock frequency        : 8.000000 MHz
;Memory model           : Small
;Optimize for           : Size
;(s)printf features     : float, width, precision
;(s)scanf features      : int, width
;External RAM size      : 0
;Data Stack size        : 512 byte(s)
;Heap size              : 0 byte(s)
;Promote 'char' to 'int': Yes
;'char' is unsigned     : Yes
;8 bit enums            : Yes
;Global 'const' stored in FLASH: Yes
;Enhanced function parameter passing: Yes
;Enhanced core instructions: On
;Automatic register allocation for global variables: On
;Smart register allocation: On

	#define _MODEL_SMALL_

	#pragma AVRPART ADMIN PART_NAME ATmega32
	#pragma AVRPART MEMORY PROG_FLASH 32768
	#pragma AVRPART MEMORY EEPROM 1024
	#pragma AVRPART MEMORY INT_SRAM SIZE 2048
	#pragma AVRPART MEMORY INT_SRAM START_ADDR 0x60

	#define CALL_SUPPORTED 1

	.LISTMAC
	.EQU UDRE=0x5
	.EQU RXC=0x7
	.EQU USR=0xB
	.EQU UDR=0xC
	.EQU SPSR=0xE
	.EQU SPDR=0xF
	.EQU EERE=0x0
	.EQU EEWE=0x1
	.EQU EEMWE=0x2
	.EQU EECR=0x1C
	.EQU EEDR=0x1D
	.EQU EEARL=0x1E
	.EQU EEARH=0x1F
	.EQU WDTCR=0x21
	.EQU MCUCR=0x35
	.EQU GICR=0x3B
	.EQU SPL=0x3D
	.EQU SPH=0x3E
	.EQU SREG=0x3F

	.DEF R0X0=R0
	.DEF R0X1=R1
	.DEF R0X2=R2
	.DEF R0X3=R3
	.DEF R0X4=R4
	.DEF R0X5=R5
	.DEF R0X6=R6
	.DEF R0X7=R7
	.DEF R0X8=R8
	.DEF R0X9=R9
	.DEF R0XA=R10
	.DEF R0XB=R11
	.DEF R0XC=R12
	.DEF R0XD=R13
	.DEF R0XE=R14
	.DEF R0XF=R15
	.DEF R0X10=R16
	.DEF R0X11=R17
	.DEF R0X12=R18
	.DEF R0X13=R19
	.DEF R0X14=R20
	.DEF R0X15=R21
	.DEF R0X16=R22
	.DEF R0X17=R23
	.DEF R0X18=R24
	.DEF R0X19=R25
	.DEF R0X1A=R26
	.DEF R0X1B=R27
	.DEF R0X1C=R28
	.DEF R0X1D=R29
	.DEF R0X1E=R30
	.DEF R0X1F=R31

	.EQU __SRAM_START=0x0060
	.EQU __SRAM_END=0x085F
	.EQU __DSTACK_SIZE=0x0200
	.EQU __HEAP_SIZE=0x0000
	.EQU __CLEAR_SRAM_SIZE=__SRAM_END-__SRAM_START+1

	.MACRO __CPD1N
	CPI  R30,LOW(@0)
	LDI  R26,HIGH(@0)
	CPC  R31,R26
	LDI  R26,BYTE3(@0)
	CPC  R22,R26
	LDI  R26,BYTE4(@0)
	CPC  R23,R26
	.ENDM

	.MACRO __CPD2N
	CPI  R26,LOW(@0)
	LDI  R30,HIGH(@0)
	CPC  R27,R30
	LDI  R30,BYTE3(@0)
	CPC  R24,R30
	LDI  R30,BYTE4(@0)
	CPC  R25,R30
	.ENDM

	.MACRO __CPWRR
	CP   R@0,R@2
	CPC  R@1,R@3
	.ENDM

	.MACRO __CPWRN
	CPI  R@0,LOW(@2)
	LDI  R30,HIGH(@2)
	CPC  R@1,R30
	.ENDM

	.MACRO __ADDB1MN
	SUBI R30,LOW(-@0-(@1))
	.ENDM

	.MACRO __ADDB2MN
	SUBI R26,LOW(-@0-(@1))
	.ENDM

	.MACRO __ADDW1MN
	SUBI R30,LOW(-@0-(@1))
	SBCI R31,HIGH(-@0-(@1))
	.ENDM

	.MACRO __ADDW2MN
	SUBI R26,LOW(-@0-(@1))
	SBCI R27,HIGH(-@0-(@1))
	.ENDM

	.MACRO __ADDW1FN
	SUBI R30,LOW(-2*@0-(@1))
	SBCI R31,HIGH(-2*@0-(@1))
	.ENDM

	.MACRO __ADDD1FN
	SUBI R30,LOW(-2*@0-(@1))
	SBCI R31,HIGH(-2*@0-(@1))
	SBCI R22,BYTE3(-2*@0-(@1))
	.ENDM

	.MACRO __ADDD1N
	SUBI R30,LOW(-@0)
	SBCI R31,HIGH(-@0)
	SBCI R22,BYTE3(-@0)
	SBCI R23,BYTE4(-@0)
	.ENDM

	.MACRO __ADDD2N
	SUBI R26,LOW(-@0)
	SBCI R27,HIGH(-@0)
	SBCI R24,BYTE3(-@0)
	SBCI R25,BYTE4(-@0)
	.ENDM

	.MACRO __SUBD1N
	SUBI R30,LOW(@0)
	SBCI R31,HIGH(@0)
	SBCI R22,BYTE3(@0)
	SBCI R23,BYTE4(@0)
	.ENDM

	.MACRO __SUBD2N
	SUBI R26,LOW(@0)
	SBCI R27,HIGH(@0)
	SBCI R24,BYTE3(@0)
	SBCI R25,BYTE4(@0)
	.ENDM

	.MACRO __ANDBMNN
	LDS  R30,@0+(@1)
	ANDI R30,LOW(@2)
	STS  @0+(@1),R30
	.ENDM

	.MACRO __ANDWMNN
	LDS  R30,@0+(@1)
	ANDI R30,LOW(@2)
	STS  @0+(@1),R30
	LDS  R30,@0+(@1)+1
	ANDI R30,HIGH(@2)
	STS  @0+(@1)+1,R30
	.ENDM

	.MACRO __ANDD1N
	ANDI R30,LOW(@0)
	ANDI R31,HIGH(@0)
	ANDI R22,BYTE3(@0)
	ANDI R23,BYTE4(@0)
	.ENDM

	.MACRO __ANDD2N
	ANDI R26,LOW(@0)
	ANDI R27,HIGH(@0)
	ANDI R24,BYTE3(@0)
	ANDI R25,BYTE4(@0)
	.ENDM

	.MACRO __ORBMNN
	LDS  R30,@0+(@1)
	ORI  R30,LOW(@2)
	STS  @0+(@1),R30
	.ENDM

	.MACRO __ORWMNN
	LDS  R30,@0+(@1)
	ORI  R30,LOW(@2)
	STS  @0+(@1),R30
	LDS  R30,@0+(@1)+1
	ORI  R30,HIGH(@2)
	STS  @0+(@1)+1,R30
	.ENDM

	.MACRO __ORD1N
	ORI  R30,LOW(@0)
	ORI  R31,HIGH(@0)
	ORI  R22,BYTE3(@0)
	ORI  R23,BYTE4(@0)
	.ENDM

	.MACRO __ORD2N
	ORI  R26,LOW(@0)
	ORI  R27,HIGH(@0)
	ORI  R24,BYTE3(@0)
	ORI  R25,BYTE4(@0)
	.ENDM

	.MACRO __DELAY_USB
	LDI  R24,LOW(@0)
__DELAY_USB_LOOP:
	DEC  R24
	BRNE __DELAY_USB_LOOP
	.ENDM

	.MACRO __DELAY_USW
	LDI  R24,LOW(@0)
	LDI  R25,HIGH(@0)
__DELAY_USW_LOOP:
	SBIW R24,1
	BRNE __DELAY_USW_LOOP
	.ENDM

	.MACRO __GETD1S
	LDD  R30,Y+@0
	LDD  R31,Y+@0+1
	LDD  R22,Y+@0+2
	LDD  R23,Y+@0+3
	.ENDM

	.MACRO __GETD2S
	LDD  R26,Y+@0
	LDD  R27,Y+@0+1
	LDD  R24,Y+@0+2
	LDD  R25,Y+@0+3
	.ENDM

	.MACRO __PUTD1S
	STD  Y+@0,R30
	STD  Y+@0+1,R31
	STD  Y+@0+2,R22
	STD  Y+@0+3,R23
	.ENDM

	.MACRO __PUTD2S
	STD  Y+@0,R26
	STD  Y+@0+1,R27
	STD  Y+@0+2,R24
	STD  Y+@0+3,R25
	.ENDM

	.MACRO __PUTDZ2
	STD  Z+@0,R26
	STD  Z+@0+1,R27
	STD  Z+@0+2,R24
	STD  Z+@0+3,R25
	.ENDM

	.MACRO __CLRD1S
	STD  Y+@0,R30
	STD  Y+@0+1,R30
	STD  Y+@0+2,R30
	STD  Y+@0+3,R30
	.ENDM

	.MACRO __POINTB1MN
	LDI  R30,LOW(@0+(@1))
	.ENDM

	.MACRO __POINTW1MN
	LDI  R30,LOW(@0+(@1))
	LDI  R31,HIGH(@0+(@1))
	.ENDM

	.MACRO __POINTD1M
	LDI  R30,LOW(@0)
	LDI  R31,HIGH(@0)
	LDI  R22,BYTE3(@0)
	LDI  R23,BYTE4(@0)
	.ENDM

	.MACRO __POINTW1FN
	LDI  R30,LOW(2*@0+(@1))
	LDI  R31,HIGH(2*@0+(@1))
	.ENDM

	.MACRO __POINTD1FN
	LDI  R30,LOW(2*@0+(@1))
	LDI  R31,HIGH(2*@0+(@1))
	LDI  R22,BYTE3(2*@0+(@1))
	LDI  R23,BYTE4(2*@0+(@1))
	.ENDM

	.MACRO __POINTB2MN
	LDI  R26,LOW(@0+(@1))
	.ENDM

	.MACRO __POINTW2MN
	LDI  R26,LOW(@0+(@1))
	LDI  R27,HIGH(@0+(@1))
	.ENDM

	.MACRO __POINTW2FN
	LDI  R26,LOW(2*@0+(@1))
	LDI  R27,HIGH(2*@0+(@1))
	.ENDM

	.MACRO __POINTD2FN
	LDI  R26,LOW(2*@0+(@1))
	LDI  R27,HIGH(2*@0+(@1))
	LDI  R24,BYTE3(2*@0+(@1))
	LDI  R25,BYTE4(2*@0+(@1))
	.ENDM

	.MACRO __POINTBRM
	LDI  R@0,LOW(@1)
	.ENDM

	.MACRO __POINTWRM
	LDI  R@0,LOW(@2)
	LDI  R@1,HIGH(@2)
	.ENDM

	.MACRO __POINTBRMN
	LDI  R@0,LOW(@1+(@2))
	.ENDM

	.MACRO __POINTWRMN
	LDI  R@0,LOW(@2+(@3))
	LDI  R@1,HIGH(@2+(@3))
	.ENDM

	.MACRO __POINTWRFN
	LDI  R@0,LOW(@2*2+(@3))
	LDI  R@1,HIGH(@2*2+(@3))
	.ENDM

	.MACRO __GETD1N
	LDI  R30,LOW(@0)
	LDI  R31,HIGH(@0)
	LDI  R22,BYTE3(@0)
	LDI  R23,BYTE4(@0)
	.ENDM

	.MACRO __GETD2N
	LDI  R26,LOW(@0)
	LDI  R27,HIGH(@0)
	LDI  R24,BYTE3(@0)
	LDI  R25,BYTE4(@0)
	.ENDM

	.MACRO __GETB1MN
	LDS  R30,@0+(@1)
	.ENDM

	.MACRO __GETB1HMN
	LDS  R31,@0+(@1)
	.ENDM

	.MACRO __GETW1MN
	LDS  R30,@0+(@1)
	LDS  R31,@0+(@1)+1
	.ENDM

	.MACRO __GETD1MN
	LDS  R30,@0+(@1)
	LDS  R31,@0+(@1)+1
	LDS  R22,@0+(@1)+2
	LDS  R23,@0+(@1)+3
	.ENDM

	.MACRO __GETBRMN
	LDS  R@0,@1+(@2)
	.ENDM

	.MACRO __GETWRMN
	LDS  R@0,@2+(@3)
	LDS  R@1,@2+(@3)+1
	.ENDM

	.MACRO __GETWRZ
	LDD  R@0,Z+@2
	LDD  R@1,Z+@2+1
	.ENDM

	.MACRO __GETD2Z
	LDD  R26,Z+@0
	LDD  R27,Z+@0+1
	LDD  R24,Z+@0+2
	LDD  R25,Z+@0+3
	.ENDM

	.MACRO __GETB2MN
	LDS  R26,@0+(@1)
	.ENDM

	.MACRO __GETW2MN
	LDS  R26,@0+(@1)
	LDS  R27,@0+(@1)+1
	.ENDM

	.MACRO __GETD2MN
	LDS  R26,@0+(@1)
	LDS  R27,@0+(@1)+1
	LDS  R24,@0+(@1)+2
	LDS  R25,@0+(@1)+3
	.ENDM

	.MACRO __PUTB1MN
	STS  @0+(@1),R30
	.ENDM

	.MACRO __PUTW1MN
	STS  @0+(@1),R30
	STS  @0+(@1)+1,R31
	.ENDM

	.MACRO __PUTD1MN
	STS  @0+(@1),R30
	STS  @0+(@1)+1,R31
	STS  @0+(@1)+2,R22
	STS  @0+(@1)+3,R23
	.ENDM

	.MACRO __PUTB1EN
	LDI  R26,LOW(@0+(@1))
	LDI  R27,HIGH(@0+(@1))
	CALL __EEPROMWRB
	.ENDM

	.MACRO __PUTW1EN
	LDI  R26,LOW(@0+(@1))
	LDI  R27,HIGH(@0+(@1))
	CALL __EEPROMWRW
	.ENDM

	.MACRO __PUTD1EN
	LDI  R26,LOW(@0+(@1))
	LDI  R27,HIGH(@0+(@1))
	CALL __EEPROMWRD
	.ENDM

	.MACRO __PUTBR0MN
	STS  @0+(@1),R0
	.ENDM

	.MACRO __PUTBMRN
	STS  @0+(@1),R@2
	.ENDM

	.MACRO __PUTWMRN
	STS  @0+(@1),R@2
	STS  @0+(@1)+1,R@3
	.ENDM

	.MACRO __PUTBZR
	STD  Z+@1,R@0
	.ENDM

	.MACRO __PUTWZR
	STD  Z+@2,R@0
	STD  Z+@2+1,R@1
	.ENDM

	.MACRO __GETW1R
	MOV  R30,R@0
	MOV  R31,R@1
	.ENDM

	.MACRO __GETW2R
	MOV  R26,R@0
	MOV  R27,R@1
	.ENDM

	.MACRO __GETWRN
	LDI  R@0,LOW(@2)
	LDI  R@1,HIGH(@2)
	.ENDM

	.MACRO __PUTW1R
	MOV  R@0,R30
	MOV  R@1,R31
	.ENDM

	.MACRO __PUTW2R
	MOV  R@0,R26
	MOV  R@1,R27
	.ENDM

	.MACRO __ADDWRN
	SUBI R@0,LOW(-@2)
	SBCI R@1,HIGH(-@2)
	.ENDM

	.MACRO __ADDWRR
	ADD  R@0,R@2
	ADC  R@1,R@3
	.ENDM

	.MACRO __SUBWRN
	SUBI R@0,LOW(@2)
	SBCI R@1,HIGH(@2)
	.ENDM

	.MACRO __SUBWRR
	SUB  R@0,R@2
	SBC  R@1,R@3
	.ENDM

	.MACRO __ANDWRN
	ANDI R@0,LOW(@2)
	ANDI R@1,HIGH(@2)
	.ENDM

	.MACRO __ANDWRR
	AND  R@0,R@2
	AND  R@1,R@3
	.ENDM

	.MACRO __ORWRN
	ORI  R@0,LOW(@2)
	ORI  R@1,HIGH(@2)
	.ENDM

	.MACRO __ORWRR
	OR   R@0,R@2
	OR   R@1,R@3
	.ENDM

	.MACRO __EORWRR
	EOR  R@0,R@2
	EOR  R@1,R@3
	.ENDM

	.MACRO __GETWRS
	LDD  R@0,Y+@2
	LDD  R@1,Y+@2+1
	.ENDM

	.MACRO __PUTBSR
	STD  Y+@1,R@0
	.ENDM

	.MACRO __PUTWSR
	STD  Y+@2,R@0
	STD  Y+@2+1,R@1
	.ENDM

	.MACRO __MOVEWRR
	MOV  R@0,R@2
	MOV  R@1,R@3
	.ENDM

	.MACRO __INWR
	IN   R@0,@2
	IN   R@1,@2+1
	.ENDM

	.MACRO __OUTWR
	OUT  @2+1,R@1
	OUT  @2,R@0
	.ENDM

	.MACRO __CALL1MN
	LDS  R30,@0+(@1)
	LDS  R31,@0+(@1)+1
	ICALL
	.ENDM

	.MACRO __CALL1FN
	LDI  R30,LOW(2*@0+(@1))
	LDI  R31,HIGH(2*@0+(@1))
	CALL __GETW1PF
	ICALL
	.ENDM

	.MACRO __CALL2EN
	PUSH R26
	PUSH R27
	LDI  R26,LOW(@0+(@1))
	LDI  R27,HIGH(@0+(@1))
	CALL __EEPROMRDW
	POP  R27
	POP  R26
	ICALL
	.ENDM

	.MACRO __CALL2EX
	SUBI R26,LOW(-@0)
	SBCI R27,HIGH(-@0)
	CALL __EEPROMRDD
	ICALL
	.ENDM

	.MACRO __GETW1STACK
	IN   R30,SPL
	IN   R31,SPH
	ADIW R30,@0+1
	LD   R0,Z+
	LD   R31,Z
	MOV  R30,R0
	.ENDM

	.MACRO __GETD1STACK
	IN   R30,SPL
	IN   R31,SPH
	ADIW R30,@0+1
	LD   R0,Z+
	LD   R1,Z+
	LD   R22,Z
	MOVW R30,R0
	.ENDM

	.MACRO __NBST
	BST  R@0,@1
	IN   R30,SREG
	LDI  R31,0x40
	EOR  R30,R31
	OUT  SREG,R30
	.ENDM


	.MACRO __PUTB1SN
	LDD  R26,Y+@0
	LDD  R27,Y+@0+1
	SUBI R26,LOW(-@1)
	SBCI R27,HIGH(-@1)
	ST   X,R30
	.ENDM

	.MACRO __PUTW1SN
	LDD  R26,Y+@0
	LDD  R27,Y+@0+1
	SUBI R26,LOW(-@1)
	SBCI R27,HIGH(-@1)
	ST   X+,R30
	ST   X,R31
	.ENDM

	.MACRO __PUTD1SN
	LDD  R26,Y+@0
	LDD  R27,Y+@0+1
	SUBI R26,LOW(-@1)
	SBCI R27,HIGH(-@1)
	CALL __PUTDP1
	.ENDM

	.MACRO __PUTB1SNS
	LDD  R26,Y+@0
	LDD  R27,Y+@0+1
	ADIW R26,@1
	ST   X,R30
	.ENDM

	.MACRO __PUTW1SNS
	LDD  R26,Y+@0
	LDD  R27,Y+@0+1
	ADIW R26,@1
	ST   X+,R30
	ST   X,R31
	.ENDM

	.MACRO __PUTD1SNS
	LDD  R26,Y+@0
	LDD  R27,Y+@0+1
	ADIW R26,@1
	CALL __PUTDP1
	.ENDM

	.MACRO __PUTB1PMN
	LDS  R26,@0
	LDS  R27,@0+1
	SUBI R26,LOW(-@1)
	SBCI R27,HIGH(-@1)
	ST   X,R30
	.ENDM

	.MACRO __PUTW1PMN
	LDS  R26,@0
	LDS  R27,@0+1
	SUBI R26,LOW(-@1)
	SBCI R27,HIGH(-@1)
	ST   X+,R30
	ST   X,R31
	.ENDM

	.MACRO __PUTD1PMN
	LDS  R26,@0
	LDS  R27,@0+1
	SUBI R26,LOW(-@1)
	SBCI R27,HIGH(-@1)
	CALL __PUTDP1
	.ENDM

	.MACRO __PUTB1PMNS
	LDS  R26,@0
	LDS  R27,@0+1
	ADIW R26,@1
	ST   X,R30
	.ENDM

	.MACRO __PUTW1PMNS
	LDS  R26,@0
	LDS  R27,@0+1
	ADIW R26,@1
	ST   X+,R30
	ST   X,R31
	.ENDM

	.MACRO __PUTD1PMNS
	LDS  R26,@0
	LDS  R27,@0+1
	ADIW R26,@1
	CALL __PUTDP1
	.ENDM

	.MACRO __PUTB1RN
	MOVW R26,R@0
	SUBI R26,LOW(-@1)
	SBCI R27,HIGH(-@1)
	ST   X,R30
	.ENDM

	.MACRO __PUTW1RN
	MOVW R26,R@0
	SUBI R26,LOW(-@1)
	SBCI R27,HIGH(-@1)
	ST   X+,R30
	ST   X,R31
	.ENDM

	.MACRO __PUTD1RN
	MOVW R26,R@0
	SUBI R26,LOW(-@1)
	SBCI R27,HIGH(-@1)
	CALL __PUTDP1
	.ENDM

	.MACRO __PUTB1RNS
	MOVW R26,R@0
	ADIW R26,@1
	ST   X,R30
	.ENDM

	.MACRO __PUTW1RNS
	MOVW R26,R@0
	ADIW R26,@1
	ST   X+,R30
	ST   X,R31
	.ENDM

	.MACRO __PUTD1RNS
	MOVW R26,R@0
	ADIW R26,@1
	CALL __PUTDP1
	.ENDM

	.MACRO __PUTB1RON
	MOV  R26,R@0
	MOV  R27,R@1
	SUBI R26,LOW(-@2)
	SBCI R27,HIGH(-@2)
	ST   X,R30
	.ENDM

	.MACRO __PUTW1RON
	MOV  R26,R@0
	MOV  R27,R@1
	SUBI R26,LOW(-@2)
	SBCI R27,HIGH(-@2)
	ST   X+,R30
	ST   X,R31
	.ENDM

	.MACRO __PUTD1RON
	MOV  R26,R@0
	MOV  R27,R@1
	SUBI R26,LOW(-@2)
	SBCI R27,HIGH(-@2)
	CALL __PUTDP1
	.ENDM

	.MACRO __PUTB1RONS
	MOV  R26,R@0
	MOV  R27,R@1
	ADIW R26,@2
	ST   X,R30
	.ENDM

	.MACRO __PUTW1RONS
	MOV  R26,R@0
	MOV  R27,R@1
	ADIW R26,@2
	ST   X+,R30
	ST   X,R31
	.ENDM

	.MACRO __PUTD1RONS
	MOV  R26,R@0
	MOV  R27,R@1
	ADIW R26,@2
	CALL __PUTDP1
	.ENDM


	.MACRO __GETB1SX
	MOVW R30,R28
	SUBI R30,LOW(-@0)
	SBCI R31,HIGH(-@0)
	LD   R30,Z
	.ENDM

	.MACRO __GETB1HSX
	MOVW R30,R28
	SUBI R30,LOW(-@0)
	SBCI R31,HIGH(-@0)
	LD   R31,Z
	.ENDM

	.MACRO __GETW1SX
	MOVW R30,R28
	SUBI R30,LOW(-@0)
	SBCI R31,HIGH(-@0)
	LD   R0,Z+
	LD   R31,Z
	MOV  R30,R0
	.ENDM

	.MACRO __GETD1SX
	MOVW R30,R28
	SUBI R30,LOW(-@0)
	SBCI R31,HIGH(-@0)
	LD   R0,Z+
	LD   R1,Z+
	LD   R22,Z+
	LD   R23,Z
	MOVW R30,R0
	.ENDM

	.MACRO __GETB2SX
	MOVW R26,R28
	SUBI R26,LOW(-@0)
	SBCI R27,HIGH(-@0)
	LD   R26,X
	.ENDM

	.MACRO __GETW2SX
	MOVW R26,R28
	SUBI R26,LOW(-@0)
	SBCI R27,HIGH(-@0)
	LD   R0,X+
	LD   R27,X
	MOV  R26,R0
	.ENDM

	.MACRO __GETD2SX
	MOVW R26,R28
	SUBI R26,LOW(-@0)
	SBCI R27,HIGH(-@0)
	LD   R0,X+
	LD   R1,X+
	LD   R24,X+
	LD   R25,X
	MOVW R26,R0
	.ENDM

	.MACRO __GETBRSX
	MOVW R30,R28
	SUBI R30,LOW(-@1)
	SBCI R31,HIGH(-@1)
	LD   R@0,Z
	.ENDM

	.MACRO __GETWRSX
	MOVW R30,R28
	SUBI R30,LOW(-@2)
	SBCI R31,HIGH(-@2)
	LD   R@0,Z+
	LD   R@1,Z
	.ENDM

	.MACRO __GETBRSX2
	MOVW R26,R28
	SUBI R26,LOW(-@1)
	SBCI R27,HIGH(-@1)
	LD   R@0,X
	.ENDM

	.MACRO __GETWRSX2
	MOVW R26,R28
	SUBI R26,LOW(-@2)
	SBCI R27,HIGH(-@2)
	LD   R@0,X+
	LD   R@1,X
	.ENDM

	.MACRO __LSLW8SX
	MOVW R30,R28
	SUBI R30,LOW(-@0)
	SBCI R31,HIGH(-@0)
	LD   R31,Z
	CLR  R30
	.ENDM

	.MACRO __PUTB1SX
	MOVW R26,R28
	SUBI R26,LOW(-@0)
	SBCI R27,HIGH(-@0)
	ST   X,R30
	.ENDM

	.MACRO __PUTW1SX
	MOVW R26,R28
	SUBI R26,LOW(-@0)
	SBCI R27,HIGH(-@0)
	ST   X+,R30
	ST   X,R31
	.ENDM

	.MACRO __PUTD1SX
	MOVW R26,R28
	SUBI R26,LOW(-@0)
	SBCI R27,HIGH(-@0)
	ST   X+,R30
	ST   X+,R31
	ST   X+,R22
	ST   X,R23
	.ENDM

	.MACRO __CLRW1SX
	MOVW R26,R28
	SUBI R26,LOW(-@0)
	SBCI R27,HIGH(-@0)
	ST   X+,R30
	ST   X,R30
	.ENDM

	.MACRO __CLRD1SX
	MOVW R26,R28
	SUBI R26,LOW(-@0)
	SBCI R27,HIGH(-@0)
	ST   X+,R30
	ST   X+,R30
	ST   X+,R30
	ST   X,R30
	.ENDM

	.MACRO __PUTB2SX
	MOVW R30,R28
	SUBI R30,LOW(-@0)
	SBCI R31,HIGH(-@0)
	ST   Z,R26
	.ENDM

	.MACRO __PUTW2SX
	MOVW R30,R28
	SUBI R30,LOW(-@0)
	SBCI R31,HIGH(-@0)
	ST   Z+,R26
	ST   Z,R27
	.ENDM

	.MACRO __PUTD2SX
	MOVW R30,R28
	SUBI R30,LOW(-@0)
	SBCI R31,HIGH(-@0)
	ST   Z+,R26
	ST   Z+,R27
	ST   Z+,R24
	ST   Z,R25
	.ENDM

	.MACRO __PUTBSRX
	MOVW R30,R28
	SUBI R30,LOW(-@1)
	SBCI R31,HIGH(-@1)
	ST   Z,R@0
	.ENDM

	.MACRO __PUTWSRX
	MOVW R30,R28
	SUBI R30,LOW(-@2)
	SBCI R31,HIGH(-@2)
	ST   Z+,R@0
	ST   Z,R@1
	.ENDM

	.MACRO __PUTB1SNX
	MOVW R26,R28
	SUBI R26,LOW(-@0)
	SBCI R27,HIGH(-@0)
	LD   R0,X+
	LD   R27,X
	MOV  R26,R0
	SUBI R26,LOW(-@1)
	SBCI R27,HIGH(-@1)
	ST   X,R30
	.ENDM

	.MACRO __PUTW1SNX
	MOVW R26,R28
	SUBI R26,LOW(-@0)
	SBCI R27,HIGH(-@0)
	LD   R0,X+
	LD   R27,X
	MOV  R26,R0
	SUBI R26,LOW(-@1)
	SBCI R27,HIGH(-@1)
	ST   X+,R30
	ST   X,R31
	.ENDM

	.MACRO __PUTD1SNX
	MOVW R26,R28
	SUBI R26,LOW(-@0)
	SBCI R27,HIGH(-@0)
	LD   R0,X+
	LD   R27,X
	MOV  R26,R0
	SUBI R26,LOW(-@1)
	SBCI R27,HIGH(-@1)
	ST   X+,R30
	ST   X+,R31
	ST   X+,R22
	ST   X,R23
	.ENDM

	.MACRO __MULBRR
	MULS R@0,R@1
	MOVW R30,R0
	.ENDM

	.MACRO __MULBRRU
	MUL  R@0,R@1
	MOVW R30,R0
	.ENDM

	.MACRO __MULBRR0
	MULS R@0,R@1
	.ENDM

	.MACRO __MULBRRU0
	MUL  R@0,R@1
	.ENDM

	.MACRO __MULBNWRU
	LDI  R26,@2
	MUL  R26,R@0
	MOVW R30,R0
	MUL  R26,R@1
	ADD  R31,R0
	.ENDM

;NAME DEFINITIONS FOR GLOBAL VARIABLES ALLOCATED TO REGISTERS
	.DEF _second=R4
	.DEF _second_msb=R5
	.DEF _hour=R6
	.DEF _hour_msb=R7
	.DEF _minute=R8
	.DEF _minute_msb=R9
	.DEF _H=R10
	.DEF _H_msb=R11
	.DEF _counter=R12
	.DEF _counter_msb=R13

	.CSEG
	.ORG 0x00

;START OF CODE MARKER
__START_OF_CODE:

;INTERRUPT VECTORS
	JMP  __RESET
	JMP  0x00
	JMP  0x00
	JMP  0x00
	JMP  0x00
	JMP  _timer2
	JMP  0x00
	JMP  _timer1_compa_isr
	JMP  0x00
	JMP  0x00
	JMP  0x00
	JMP  0x00
	JMP  0x00
	JMP  0x00
	JMP  0x00
	JMP  0x00
	JMP  0x00
	JMP  0x00
	JMP  0x00
	JMP  0x00
	JMP  0x00

_font5x7:
	.DB  0x5,0x7,0x20,0x60,0x0,0x0,0x0,0x0
	.DB  0x0,0x0,0x0,0x4,0x4,0x4,0x4,0x4
	.DB  0x0,0x4,0xA,0xA,0xA,0x0,0x0,0x0
	.DB  0x0,0xA,0xA,0x1F,0xA,0x1F,0xA,0xA
	.DB  0x4,0x1E,0x5,0xE,0x14,0xF,0x4,0x3
	.DB  0x13,0x8,0x4,0x2,0x19,0x18,0x6,0x9
	.DB  0x5,0x2,0x15,0x9,0x16,0x6,0x4,0x2
	.DB  0x0,0x0,0x0,0x0,0x8,0x4,0x2,0x2
	.DB  0x2,0x4,0x8,0x2,0x4,0x8,0x8,0x8
	.DB  0x4,0x2,0x0,0xA,0x4,0x1F,0x4,0xA
	.DB  0x0,0x0,0x4,0x4,0x1F,0x4,0x4,0x0
	.DB  0x0,0x0,0x0,0x0,0x6,0x4,0x2,0x0
	.DB  0x0,0x0,0x1F,0x0,0x0,0x0,0x0,0x0
	.DB  0x0,0x0,0x6,0x6,0x0,0x0,0x10,0x8
	.DB  0x4,0x2,0x1,0x0,0xE,0x11,0x19,0x15
	.DB  0x13,0x11,0xE,0x4,0x6,0x4,0x4,0x4
	.DB  0x4,0xE,0xE,0x11,0x10,0x8,0x4,0x2
	.DB  0x1F,0x1F,0x8,0x4,0x8,0x10,0x11,0xE
	.DB  0x8,0xC,0xA,0x9,0x1F,0x8,0x8,0x1F
	.DB  0x1,0xF,0x10,0x10,0x11,0xE,0xC,0x2
	.DB  0x1,0xF,0x11,0x11,0xE,0x1F,0x10,0x8
	.DB  0x4,0x2,0x2,0x2,0xE,0x11,0x11,0xE
	.DB  0x11,0x11,0xE,0xE,0x11,0x11,0x1E,0x10
	.DB  0x8,0x6,0x0,0x6,0x6,0x0,0x6,0x6
	.DB  0x0,0x0,0x6,0x6,0x0,0x6,0x4,0x2
	.DB  0x10,0x8,0x4,0x2,0x4,0x8,0x10,0x0
	.DB  0x0,0x1F,0x0,0x1F,0x0,0x0,0x1,0x2
	.DB  0x4,0x8,0x4,0x2,0x1,0xE,0x11,0x10
	.DB  0x8,0x4,0x0,0x4,0xE,0x11,0x10,0x16
	.DB  0x15,0x15,0xE,0xE,0x11,0x11,0x11,0x1F
	.DB  0x11,0x11,0xF,0x11,0x11,0xF,0x11,0x11
	.DB  0xF,0xE,0x11,0x1,0x1,0x1,0x11,0xE
	.DB  0x7,0x9,0x11,0x11,0x11,0x9,0x7,0x1F
	.DB  0x1,0x1,0xF,0x1,0x1,0x1F,0x1F,0x1
	.DB  0x1,0x7,0x1,0x1,0x1,0xE,0x11,0x1
	.DB  0x1,0x19,0x11,0xE,0x11,0x11,0x11,0x1F
	.DB  0x11,0x11,0x11,0xE,0x4,0x4,0x4,0x4
	.DB  0x4,0xE,0x1C,0x8,0x8,0x8,0x8,0x9
	.DB  0x6,0x11,0x9,0x5,0x3,0x5,0x9,0x11
	.DB  0x1,0x1,0x1,0x1,0x1,0x1,0x1F,0x11
	.DB  0x1B,0x15,0x11,0x11,0x11,0x11,0x11,0x11
	.DB  0x13,0x15,0x19,0x11,0x11,0xE,0x11,0x11
	.DB  0x11,0x11,0x11,0xE,0xF,0x11,0x11,0xF
	.DB  0x1,0x1,0x1,0xE,0x11,0x11,0x11,0x15
	.DB  0x9,0x16,0xF,0x11,0x11,0xF,0x5,0x9
	.DB  0x11,0x1E,0x1,0x1,0xE,0x10,0x10,0xF
	.DB  0x1F,0x4,0x4,0x4,0x4,0x4,0x4,0x11
	.DB  0x11,0x11,0x11,0x11,0x11,0xE,0x11,0x11
	.DB  0x11,0x11,0x11,0xA,0x4,0x11,0x11,0x11
	.DB  0x15,0x15,0x1B,0x11,0x11,0x11,0xA,0x4
	.DB  0xA,0x11,0x11,0x11,0x11,0xA,0x4,0x4
	.DB  0x4,0x4,0x1F,0x10,0x8,0x4,0x2,0x1
	.DB  0x1F,0x1C,0x4,0x4,0x4,0x4,0x4,0x1C
	.DB  0x0,0x1,0x2,0x4,0x8,0x10,0x0,0x7
	.DB  0x4,0x4,0x4,0x4,0x4,0x7,0x4,0xA
	.DB  0x11,0x0,0x0,0x0,0x0,0x0,0x0,0x0
	.DB  0x0,0x0,0x0,0x1F,0x2,0x4,0x8,0x0
	.DB  0x0,0x0,0x0,0x0,0x0,0xE,0x10,0x1E
	.DB  0x11,0x1E,0x1,0x1,0xD,0x13,0x11,0x11
	.DB  0xF,0x0,0x0,0xE,0x1,0x1,0x11,0xE
	.DB  0x10,0x10,0x16,0x19,0x11,0x11,0x1E,0x0
	.DB  0x0,0xE,0x11,0x1F,0x1,0xE,0xC,0x12
	.DB  0x2,0x7,0x2,0x2,0x2,0x0,0x0,0x1E
	.DB  0x11,0x1E,0x10,0xC,0x1,0x1,0xD,0x13
	.DB  0x11,0x11,0x11,0x4,0x0,0x6,0x4,0x4
	.DB  0x4,0xE,0x8,0x0,0xC,0x8,0x8,0x9
	.DB  0x6,0x2,0x2,0x12,0xA,0x6,0xA,0x12
	.DB  0x6,0x4,0x4,0x4,0x4,0x4,0xE,0x0
	.DB  0x0,0xB,0x15,0x15,0x11,0x11,0x0,0x0
	.DB  0xD,0x13,0x11,0x11,0x11,0x0,0x0,0xE
	.DB  0x11,0x11,0x11,0xE,0x0,0x0,0xF,0x11
	.DB  0xF,0x1,0x1,0x0,0x0,0x16,0x19,0x1E
	.DB  0x10,0x10,0x0,0x0,0xD,0x13,0x1,0x1
	.DB  0x1,0x0,0x0,0xE,0x1,0xE,0x10,0xF
	.DB  0x2,0x2,0x7,0x2,0x2,0x12,0xC,0x0
	.DB  0x0,0x11,0x11,0x11,0x19,0x16,0x0,0x0
	.DB  0x11,0x11,0x11,0xA,0x4,0x0,0x0,0x11
	.DB  0x11,0x15,0x15,0xA,0x0,0x0,0x11,0xA
	.DB  0x4,0xA,0x11,0x0,0x0,0x11,0x11,0x1E
	.DB  0x10,0xE,0x0,0x0,0x1F,0x8,0x4,0x2
	.DB  0x1F,0x8,0x4,0x4,0x2,0x4,0x4,0x8
	.DB  0x4,0x4,0x4,0x4,0x4,0x4,0x4,0x2
	.DB  0x4,0x4,0x8,0x4,0x4,0x2,0x2,0x15
	.DB  0x8,0x0,0x0,0x0,0x0,0x1F,0x11,0x11
	.DB  0x11,0x11,0x11,0x1F
_clock_0:
	.DB  0x6E,0x0,0x6E,0x0,0x0,0x0,0x0,0x0
	.DB  0x0,0xE0,0xFF,0xFF,0x1,0x0,0x0,0x0
	.DB  0x0,0x0,0x0,0x0,0x0,0x0,0x0,0xFF
	.DB  0xFF,0xFF,0x1F,0x0,0x0,0x0,0x0,0x0
	.DB  0x0,0x0,0x0,0x0,0xE0,0xFF,0x1,0xE0
	.DB  0xFF,0x1,0x0,0x0,0x0,0x0,0x0,0x0
	.DB  0x0,0x0,0xFC,0x7,0x0,0x0,0xF8,0x7
	.DB  0x0,0x0,0x0,0x0,0x0,0x0,0x0,0x0
	.DB  0x7F,0x0,0xC,0x1E,0x80,0x3F,0x0,0x0
	.DB  0x0,0x0,0x0,0x0,0x0,0xC0,0xF,0x0
	.DB  0xC,0x3F,0x0,0xFE,0x0,0x0,0x0,0x0
	.DB  0x0,0x0,0x0,0xF0,0x3,0x80,0x8F,0x73
	.DB  0x0,0xF0,0x3,0x0,0x0,0x0,0x0,0x0
	.DB  0x0,0xFC,0x0,0x80,0x8F,0x73,0x0,0xC0
	.DB  0xF,0x0,0x0,0x0,0x0,0x0,0x0,0x3F
	.DB  0x0,0x0,0x8C,0x73,0x0,0x0,0x1F,0x0
	.DB  0x0,0x0,0x0,0x0,0x80,0xF,0x0,0x0
	.DB  0xC,0x70,0x0,0x0,0x7C,0x0,0x0,0x0
	.DB  0x0,0x0,0xC0,0x3,0x0,0x0,0xC,0x3C
	.DB  0x0,0x0,0xF8,0x0,0x0,0x0,0x0,0x0
	.DB  0xF0,0x1,0x0,0x0,0xC,0x1E,0x0,0x0
	.DB  0xE0,0x1,0x0,0x0,0x0,0x0,0xF8,0x0
	.DB  0x0,0x0,0xC,0xF,0x0,0x0,0xC0,0x7
	.DB  0x0,0x0,0x0,0x0,0x3C,0x0,0x0,0x0
	.DB  0xC,0x7,0x0,0x0,0x0,0xF,0x0,0x0
	.DB  0x0,0x0,0x1E,0x6,0xE,0x0,0x8C,0x7F
	.DB  0x0,0x0,0x6,0x1E,0x0,0x0,0x0,0x0
	.DB  0x8F,0x7,0xF,0x0,0x8C,0x7F,0x0,0x80
	.DB  0x7,0x3C,0x0,0x0,0x0,0x80,0xC7,0x87
	.DB  0xF,0x0,0x0,0x0,0x0,0xC0,0x7,0x78
	.DB  0x0,0x0,0x0,0xC0,0x3,0x6,0xE,0x0
	.DB  0x0,0x0,0x0,0x0,0x6,0xF0,0x0,0x0
	.DB  0x0,0xE0,0x1,0x6,0xE,0x0,0x0,0x0
	.DB  0x0,0x0,0x6,0xE0,0x1,0x0,0x0,0xF0
	.DB  0x0,0x6,0xE,0x0,0x0,0x0,0x0,0x0
	.DB  0x6,0xC0,0x3,0x0,0x0,0x78,0x0,0x6
	.DB  0xE,0x0,0x0,0x0,0x0,0x0,0x6,0x80
	.DB  0x7,0x0,0x0,0x38,0x0,0x6,0xE,0x0
	.DB  0x0,0x0,0x0,0x0,0x6,0x0,0x7,0x0
	.DB  0x0,0x1C,0x0,0x6,0xE,0x0,0x0,0x0
	.DB  0x0,0x0,0x6,0x0,0xE,0x0,0x0,0xE
	.DB  0x0,0x6,0xE,0x0,0x0,0x0,0x0,0x0
	.DB  0x6,0x0,0x1E,0x0,0x0,0xF,0x0,0x6
	.DB  0xE,0x0,0x0,0x0,0x0,0x0,0x6,0x0
	.DB  0x1C,0x0,0x0,0x7,0x0,0x6,0x6,0x0
	.DB  0x0,0x0,0x0,0x0,0x6,0x0,0x38,0x0
	.DB  0x80,0x3,0x0,0x0,0x0,0x0,0x0,0x0
	.DB  0x0,0x0,0x0,0x0,0x78,0x0,0x80,0x3
	.DB  0x0,0x0,0x0,0x0,0x0,0x0,0x0,0x0
	.DB  0x0,0x0,0x70,0x0,0xC0,0x1,0x0,0x0
	.DB  0x0,0x0,0x0,0x0,0x0,0x0,0x0,0x0
	.DB  0xE0,0x0,0xE0,0x18,0x38,0x0,0x0,0x0
	.DB  0x0,0x0,0x0,0x0,0x0,0xE0,0xE7,0x0
	.DB  0xE0,0x18,0x7C,0x0,0x0,0x0,0x0,0x0
	.DB  0x0,0x0,0x0,0xE0,0xCF,0x1,0x70,0x1E
	.DB  0xFE,0x0,0x0,0x0,0x0,0x0,0x0,0x0
	.DB  0x0,0x60,0xCE,0x1,0x70,0x1F,0xE6,0x0
	.DB  0x0,0x0,0x0,0x0,0x0,0x0,0x0,0x60
	.DB  0x8E,0x3,0x30,0x18,0xC7,0x0,0x0,0x0
	.DB  0x0,0x0,0x0,0x0,0x0,0x0,0x8E,0x3
	.DB  0x38,0x18,0xC7,0x0,0x0,0x0,0x0,0x0
	.DB  0x0,0x0,0x0,0x0,0x7,0x7,0x38,0x18
	.DB  0xC7,0x0,0x0,0x0,0x0,0x0,0x0,0x0
	.DB  0x0,0x80,0x7,0x7,0x1C,0x18,0xC7,0x0
	.DB  0x0,0x0,0x0,0x0,0x0,0x0,0x0,0xC0
	.DB  0x1,0x6,0x1C,0x18,0xC7,0x0,0x0,0x0
	.DB  0x0,0x0,0x0,0x0,0x0,0xE0,0x0,0xE
	.DB  0xC,0x18,0xC7,0x0,0x0,0x0,0x0,0x0
	.DB  0x0,0x0,0x0,0x60,0x0,0xE,0xE,0x18
	.DB  0xEE,0x0,0x0,0x0,0x0,0x0,0x0,0x0
	.DB  0x0,0xF0,0xF,0xC,0xE,0x18,0x7E,0x0
	.DB  0x0,0x0,0x0,0x0,0x0,0x0,0x0,0xF0
	.DB  0xF,0x1C,0xE,0x18,0x3C,0x0,0x0,0x0
	.DB  0x0,0x0,0x0,0x0,0x0,0x0,0x0,0x1C
	.DB  0x6,0x0,0x0,0x0,0x0,0x0,0x0,0x0
	.DB  0x0,0x0,0x0,0x0,0x0,0x18,0x7,0x0
	.DB  0x0,0x0,0x0,0x0,0x0,0x0,0x0,0x0
	.DB  0x0,0x0,0x0,0x18,0x7,0x0,0x0,0x0
	.DB  0x0,0x0,0x0,0x0,0x0,0x0,0x0,0x0
	.DB  0x0,0x18,0x7,0x0,0x0,0x0,0x0,0x0
	.DB  0x0,0x0,0x0,0x0,0x0,0x0,0x0,0x38
	.DB  0x3,0x0,0x0,0x0,0x0,0x0,0x0,0x0
	.DB  0x0,0x0,0x0,0x0,0x0,0x38,0x3,0x0
	.DB  0x0,0x0,0x0,0x0,0x0,0x0,0x0,0x0
	.DB  0x0,0x0,0x0,0x38,0x83,0x3,0x0,0x0
	.DB  0x0,0x0,0x0,0x0,0x0,0x0,0x0,0x0
	.DB  0xF0,0x30,0xE3,0xF,0x0,0x0,0x0,0x0
	.DB  0x0,0x0,0x0,0x0,0x0,0x0,0xF8,0x31
	.DB  0xE3,0xE,0x0,0x0,0x0,0x0,0xE0,0x1
	.DB  0x0,0x0,0x0,0x0,0xDC,0x31,0x63,0xC
	.DB  0x0,0x0,0x0,0x0,0xF0,0x3,0x0,0x0
	.DB  0x0,0x0,0x9C,0x31,0x63,0x1C,0x0,0x0
	.DB  0x0,0x0,0xF8,0x7,0x0,0x0,0x0,0x0
	.DB  0x80,0x31,0x63,0x1C,0x0,0x0,0x0,0x0
	.DB  0xF8,0x7,0x0,0x0,0x0,0x0,0xE0,0x31
	.DB  0xE3,0x1F,0x0,0x0,0x0,0x0,0xF8,0x7
	.DB  0x0,0x0,0x0,0x0,0xE0,0x31,0xE3,0x1F
	.DB  0x0,0x0,0x0,0x0,0xF8,0x7,0x0,0x0
	.DB  0x0,0x0,0x80,0x33,0x3,0xD,0x0,0x0
	.DB  0x0,0x0,0xF0,0x3,0x0,0x0,0x0,0x0
	.DB  0x8C,0x33,0x63,0xC,0x0,0x0,0x0,0x0
	.DB  0xE0,0x1,0x0,0x0,0x0,0x0,0x8C,0x33
	.DB  0xE3,0xE,0x0,0x0,0x0,0x0,0x0,0x0
	.DB  0x0,0x0,0x0,0x0,0xFC,0x33,0xE3,0x7
	.DB  0x0,0x0,0x0,0x0,0x0,0x0,0x0,0x0
	.DB  0x0,0x0,0xF8,0x31,0x83,0x3,0x0,0x0
	.DB  0x0,0x0,0x0,0x0,0x0,0x0,0x0,0x0
	.DB  0x70,0x30,0x3,0x0,0x0,0x0,0x0,0x0
	.DB  0x0,0x0,0x0,0x0,0x0,0x0,0x0,0x30
	.DB  0x3,0x0,0x0,0x0,0x0,0x0,0x0,0x0
	.DB  0x0,0x0,0x0,0x0,0x0,0x30,0x3,0x0
	.DB  0x0,0x0,0x0,0x0,0x0,0x0,0x0,0x0
	.DB  0x0,0x0,0x0,0x38,0x7,0x0,0x0,0x0
	.DB  0x0,0x0,0x0,0x0,0x0,0x0,0x0,0x0
	.DB  0x0,0x38,0x7,0x0,0x0,0x0,0x0,0x0
	.DB  0x0,0x0,0x0,0x0,0x0,0x0,0x0,0x38
	.DB  0x7,0x0,0x0,0x0,0x0,0x0,0x0,0x0
	.DB  0x0,0x0,0x0,0x0,0x0,0x18,0x6,0x0
	.DB  0x0,0x0,0x0,0x0,0x0,0x0,0x0,0x0
	.DB  0x0,0x0,0x0,0x18,0x6,0x0,0x0,0x0
	.DB  0x0,0x0,0x0,0x0,0x0,0x0,0x0,0x0
	.DB  0x0,0x1C,0xE,0x0,0x0,0x0,0x0,0x0
	.DB  0x0,0x0,0x0,0x0,0x0,0x0,0x0,0x1C
	.DB  0xE,0xF0,0x1,0x0,0x0,0x0,0x0,0x0
	.DB  0x0,0x0,0x0,0x0,0x7,0xC,0xC,0xF8
	.DB  0x3,0x0,0x0,0x0,0x0,0x0,0x0,0x0
	.DB  0x0,0x0,0x7,0xE,0x1C,0x98,0x3,0x0
	.DB  0x0,0x0,0x0,0x0,0x0,0x0,0x0,0x80
	.DB  0x7,0xE,0x1C,0x98,0x3,0x0,0x0,0x0
	.DB  0x0,0x0,0x0,0x0,0x0,0xC0,0x7,0x6
	.DB  0x18,0xF8,0x3,0x0,0x0,0x0,0x0,0x0
	.DB  0x0,0x0,0x0,0xC0,0x6,0x7,0x38,0xF0
	.DB  0x1,0x0,0x0,0x0,0x0,0x0,0x0,0x0
	.DB  0x0,0xE0,0x6,0x7,0x38,0xB8,0x3,0x0
	.DB  0x0,0x0,0x0,0x0,0x0,0x0,0x0,0x70
	.DB  0x6,0x3,0x70,0x18,0x3,0x0,0x0,0x0
	.DB  0x0,0x0,0x0,0x0,0x0,0xF0,0x8F,0x3
	.DB  0x70,0x18,0x3,0x0,0x0,0x0,0x0,0x0
	.DB  0x0,0x0,0x0,0xF0,0x8F,0x3,0xE0,0x98
	.DB  0x3,0x0,0x0,0x0,0x0,0x0,0x0,0x0
	.DB  0x0,0x0,0xC6,0x1,0xE0,0xF8,0x3,0x0
	.DB  0x0,0x0,0x0,0x0,0x0,0x0,0x0,0x0
	.DB  0xE6,0x1,0xC0,0xF1,0x1,0x0,0x0,0x0
	.DB  0x0,0x0,0x0,0x0,0x0,0x0,0xE6,0x0
	.DB  0xC0,0x1,0x0,0x0,0x0,0x0,0x0,0x0
	.DB  0x0,0x0,0x0,0x0,0x70,0x0,0x80,0x3
	.DB  0x0,0x0,0x0,0x0,0x0,0x0,0x0,0x0
	.DB  0x0,0x0,0x70,0x0,0x80,0x7,0x0,0x0
	.DB  0x0,0x0,0x0,0x0,0x0,0x0,0x0,0x0
	.DB  0x38,0x0,0x0,0x7,0x0,0x0,0x0,0x0
	.DB  0x0,0x0,0x0,0x0,0x0,0x0,0x3C,0x0
	.DB  0x0,0xE,0x0,0x0,0x0,0x0,0x0,0x0
	.DB  0x0,0x0,0x0,0x0,0x1C,0x0,0x0,0x1E
	.DB  0x0,0xFC,0x3,0x0,0x0,0x0,0x0,0x80
	.DB  0x1F,0x0,0xE,0x0,0x0,0x3C,0x0,0xFC
	.DB  0x3,0x0,0x0,0x0,0x0,0x80,0x1F,0x0
	.DB  0xF,0x0,0x0,0x38,0x0,0xC0,0x1,0x0
	.DB  0x0,0x0,0x0,0xC0,0x1,0x80,0x7,0x0
	.DB  0x0,0x70,0x0,0xC0,0x0,0x0,0x0,0x0
	.DB  0x0,0xC0,0x7,0xC0,0x3,0x0,0x0,0xE0
	.DB  0x0,0xE0,0x0,0x0,0x0,0x0,0x0,0xC0
	.DB  0x1F,0xE0,0x1,0x0,0x0,0xC0,0x1,0x60
	.DB  0x0,0x0,0x0,0x0,0x0,0xC0,0x1D,0xE0
	.DB  0x0,0x0,0x0,0xC0,0x3,0x70,0x0,0x0
	.DB  0x0,0x0,0x0,0x0,0x18,0x78,0x0,0x0
	.DB  0x0,0x80,0x7,0x30,0x0,0x0,0xF0,0x3
	.DB  0x0,0x0,0x18,0x3C,0x0,0x0,0x0,0x0
	.DB  0xF,0x38,0x0,0x0,0xF0,0x3,0x0,0xC0
	.DB  0x18,0x1E,0x0,0x0,0x0,0x0,0x3C,0x38
	.DB  0x0,0x0,0x38,0x7,0x0,0xC0,0x1D,0xF
	.DB  0x0,0x0,0x0,0x0,0x78,0x38,0x0,0x0
	.DB  0x38,0x0,0x0,0xC0,0x9F,0x7,0x0,0x0
	.DB  0x0,0x0,0xF0,0x18,0x0,0x0,0xF8,0x3
	.DB  0x0,0x80,0xEF,0x3,0x0,0x0,0x0,0x0
	.DB  0xE0,0x3,0x0,0x0,0xF8,0x3,0x0,0x0
	.DB  0xF0,0x1,0x0,0x0,0x0,0x0,0xC0,0x7
	.DB  0x0,0x0,0x38,0x7,0x0,0x0,0x7C,0x0
	.DB  0x0,0x0,0x0,0x0,0x0,0x1F,0x0,0x0
	.DB  0x38,0x7,0x0,0x0,0x3E,0x0,0x0,0x0
	.DB  0x0,0x0,0x0,0x7E,0x0,0x0,0x38,0x7
	.DB  0x0,0x80,0xF,0x0,0x0,0x0,0x0,0x0
	.DB  0x0,0xF8,0x1,0x0,0x38,0x7,0x0,0xE0
	.DB  0x7,0x0,0x0,0x0,0x0,0x0,0x0,0xE0
	.DB  0x7,0x0,0xF0,0x3,0x0,0xFC,0x1,0x0
	.DB  0x0,0x0,0x0,0x0,0x0,0x80,0x3F,0x0
	.DB  0xF0,0x1,0x0,0x7F,0x0,0x0,0x0,0x0
	.DB  0x0,0x0,0x0,0x0,0xFE,0x1,0x0,0x0
	.DB  0xE0,0xF,0x0,0x0,0x0,0x0,0x0,0x0
	.DB  0x0,0x0,0xF0,0x3F,0x0,0x0,0xFF,0x3
	.DB  0x0,0x0,0x0,0x0,0x0,0x0,0x0,0x0
	.DB  0x80,0xFF,0xFF,0xFF,0x7F,0x0,0x0,0x0
	.DB  0x0,0x0,0x0,0x0,0x0,0x0,0x0,0xF8
	.DB  0xFF,0xFF,0x7,0x0,0x0,0x0,0x0,0x0
_eagle:
	.DB  0x78,0x0,0x78,0x0,0x0,0x0,0x0,0x0
	.DB  0x0,0x0,0x0,0x0,0x0,0x0,0x0,0x0
	.DB  0x0,0x0,0x0,0x0,0x0,0x0,0x0,0x0
	.DB  0x0,0x0,0x0,0x0,0x0,0x0,0x0,0x0
	.DB  0x0,0x0,0x0,0x0,0x0,0x0,0x0,0x0
	.DB  0x0,0x0,0x0,0x0,0x0,0x0,0x0,0x0
	.DB  0x0,0x0,0x0,0x0,0x0,0x0,0x0,0xFC
	.DB  0xFF,0xF,0x0,0x0,0x0,0x0,0x0,0x0
	.DB  0x0,0x0,0x0,0x0,0x0,0xF0,0xFF,0xFF
	.DB  0xFF,0x0,0x0,0x0,0x0,0x0,0x0,0x0
	.DB  0x0,0x0,0x0,0x0,0xFF,0xFF,0xFF,0xFF
	.DB  0x7,0x0,0x0,0x0,0x0,0x0,0x0,0x0
	.DB  0x0,0x0,0xE0,0xFF,0xFF,0xFF,0xFF,0x3F
	.DB  0x0,0x0,0x0,0x0,0x0,0x0,0x0,0x0
	.DB  0x0,0xF8,0xFF,0xFF,0xFF,0xFF,0xFF,0x0
	.DB  0x0,0x0,0x0,0x0,0x0,0x0,0x0,0x0
	.DB  0xFE,0xFF,0xFF,0xFF,0xFF,0xFF,0x1,0x0
	.DB  0x0,0x0,0x0,0x0,0x0,0x0,0x80,0xFF
	.DB  0xFF,0xFF,0xFF,0xFF,0xFF,0x7,0x0,0x0
	.DB  0x0,0x0,0x0,0x0,0x0,0xE0,0xFF,0xFF
	.DB  0xFF,0xF1,0xFF,0xFF,0xF,0x0,0x0,0x0
	.DB  0x0,0x0,0x0,0x0,0xF8,0xFF,0xFF,0x0
	.DB  0x0,0xF0,0xFF,0x1F,0x0,0x0,0x0,0x0
	.DB  0x0,0x0,0x0,0xFC,0xFF,0xF,0x0,0x0
	.DB  0x0,0xFF,0x3F,0x0,0x0,0x0,0x0,0x0
	.DB  0x0,0x0,0xFF,0xFF,0x1,0x0,0x0,0x0
	.DB  0xF8,0x7F,0x0,0x0,0x0,0x0,0x0,0x0
	.DB  0x80,0xFF,0x3F,0x0,0x0,0x0,0x0,0xE0
	.DB  0xFF,0x0,0x0,0x0,0x0,0x0,0x0,0xC0
	.DB  0xFF,0xF,0x0,0x0,0x0,0x0,0x80,0xFF
	.DB  0x1,0x0,0x0,0x0,0x0,0x0,0xF0,0xFF
	.DB  0x3,0x0,0x0,0x0,0x0,0x0,0xFE,0x3
	.DB  0x0,0x0,0x0,0x0,0x0,0xF8,0xFF,0x0
	.DB  0x0,0x0,0x0,0x0,0x0,0xFC,0x7,0x0
	.DB  0x0,0x0,0x0,0x0,0xFC,0x3F,0x0,0x0
	.DB  0x0,0x0,0x0,0x0,0xF8,0x7,0x0,0x0
	.DB  0x0,0x0,0x0,0xFE,0xF,0x0,0x0,0x0
	.DB  0x0,0x0,0x0,0xE0,0xF,0x0,0x0,0x0
	.DB  0x0,0x0,0xFF,0x7,0x0,0x0,0x80,0xF
	.DB  0x0,0x0,0xC0,0xF,0x0,0x0,0x0,0x0
	.DB  0x0,0xFF,0x1,0x0,0x0,0xFF,0x1F,0x0
	.DB  0x0,0x80,0x1F,0x0,0x0,0x0,0x0,0x80
	.DB  0xFF,0x0,0x0,0xF0,0xFF,0x3,0x0,0x0
	.DB  0x0,0x1F,0x0,0x0,0x0,0x0,0xC0,0x7F
	.DB  0x0,0x0,0xFE,0xFF,0x0,0x0,0x0,0x0
	.DB  0x1E,0x0,0x0,0x0,0x0,0xE0,0x3F,0x0
	.DB  0x80,0xFF,0x3F,0x0,0x0,0x0,0x0,0x3C
	.DB  0x0,0x0,0x0,0x0,0xF0,0x1F,0x0,0xE0
	.DB  0xFF,0x7,0x0,0x0,0x0,0x0,0x3C,0x0
	.DB  0x0,0x0,0x0,0xF0,0xF,0x0,0xF8,0xFF
	.DB  0x0,0x0,0x0,0x0,0x0,0x38,0x0,0x0
	.DB  0x0,0x0,0xF8,0x7,0x0,0xFC,0x3F,0x80
	.DB  0x81,0x7F,0x0,0x0,0x70,0x0,0x0,0x0
	.DB  0x0,0xFC,0x3,0x0,0xFF,0xF,0x0,0xFF
	.DB  0xFF,0x0,0x0,0x70,0x0,0x0,0x0,0x0
	.DB  0xFC,0x1,0x80,0xFF,0x3,0x0,0xFC,0xFF
	.DB  0x1,0x0,0x60,0x0,0x20,0x0,0x0,0xFE
	.DB  0x0,0xC0,0xFF,0x0,0x0,0xF0,0xF9,0x3
	.DB  0x0,0x60,0x0,0x20,0x0,0x0,0x7E,0x0
	.DB  0xE0,0x7F,0x0,0x0,0xF0,0xF9,0x7,0x0
	.DB  0x40,0x0,0x60,0x0,0x0,0x7F,0x0,0xF0
	.DB  0x1F,0x0,0x0,0xF0,0xF8,0xF,0x0,0x40
	.DB  0x0,0xC0,0x0,0x0,0x3F,0x0,0xF8,0xF
	.DB  0x0,0x0,0x70,0xFC,0xF,0x0,0x0,0x0
	.DB  0xC0,0x0,0x80,0x1F,0x0,0xFC,0x7,0x0
	.DB  0x0,0x60,0xFE,0x1F,0x0,0x0,0x0,0xC0
	.DB  0x1,0x80,0x1F,0x0,0xFE,0x1,0x0,0x0
	.DB  0x60,0xFE,0x3F,0x0,0x0,0x0,0x80,0x1
	.DB  0xC0,0xF,0x0,0xFF,0x0,0xC0,0xFF,0x41
	.DB  0xFE,0x3F,0x0,0x0,0x0,0x80,0x1,0xC0
	.DB  0x7,0x80,0x7F,0x0,0xF8,0xFF,0xF,0xFC
	.DB  0x7F,0x0,0x0,0x0,0x80,0x3,0xE0,0x7
	.DB  0xC0,0x7F,0x0,0xFE,0xFF,0x3F,0x78,0xFF
	.DB  0x0,0x0,0x0,0x0,0x3,0xE0,0x3,0xE0
	.DB  0x3F,0x80,0xFF,0xFF,0xFF,0x80,0x1F,0x1
	.DB  0x0,0x0,0x0,0x7,0xE0,0x3,0xE0,0x1F
	.DB  0xC0,0xFF,0xCF,0xFF,0xE7,0x7,0x6,0x0
	.DB  0x0,0x0,0x7,0xF0,0x3,0xF0,0xF,0xE0
	.DB  0xF,0x0,0xC0,0xFF,0x3,0x0,0x0,0x0
	.DB  0x0,0x7,0xF0,0x1,0xF8,0x7,0xF0,0x1
	.DB  0x0,0x0,0xFC,0x0,0x0,0x0,0x0,0x0
	.DB  0xE,0xF0,0x1,0xF8,0x7,0x38,0x0,0x0
	.DB  0x0,0x0,0x0,0x0,0x0,0x0,0x0,0xE
	.DB  0xF0,0x0,0xFC,0x3,0xC,0x0,0x0,0x0
	.DB  0x0,0x0,0x0,0x80,0x0,0x0,0xE,0xF8
	.DB  0x0,0xFC,0x3,0x2,0x0,0x0,0x0,0x0
	.DB  0x0,0x0,0x0,0x3,0x0,0xE,0xF8,0x0
	.DB  0xFE,0x1,0x0,0x0,0x0,0x0,0x0,0x0
	.DB  0x0,0x0,0x7,0x0,0x1C,0x78,0x0,0xFE
	.DB  0x1,0x0,0x80,0xFF,0xFF,0x7,0x0,0x0
	.DB  0x0,0xE,0x0,0x1C,0x78,0x0,0xFF,0x0
	.DB  0x0,0xF8,0xFF,0xFF,0xFF,0x0,0x0,0x0
	.DB  0xE,0x0,0x1C,0x7C,0x0,0xFF,0x0,0x0
	.DB  0xFF,0xFF,0xFF,0xFF,0x1F,0x0,0xF,0x1C
	.DB  0x0,0x1C,0x7C,0x80,0x7F,0x0,0xE0,0xFF
	.DB  0xFF,0xFF,0xFF,0xFF,0xC0,0x3F,0x1C,0x0
	.DB  0x3C,0x3C,0x80,0x7F,0x0,0xF8,0xFF,0x3F
	.DB  0xC0,0xFF,0xFF,0x3,0x3F,0x1C,0x0,0x3C
	.DB  0x3C,0x80,0x7F,0x0,0xFE,0x1F,0x0,0x0
	.DB  0x80,0xFF,0x7,0x10,0x38,0x0,0x3C,0x3C
	.DB  0xC0,0x3F,0x0,0xFF,0x3,0x0,0x0,0x0
	.DB  0xF8,0x7,0x0,0x38,0x0,0x3C,0x3C,0xC0
	.DB  0x3F,0xC0,0x7F,0x0,0x0,0x0,0x0,0xC0
	.DB  0xF,0x0,0x38,0x0,0x3C,0x3C,0xC0,0x3F
	.DB  0xE0,0x1F,0x0,0x0,0x0,0x0,0x0,0x3F
	.DB  0x0,0x38,0x0,0x3C,0x3C,0xC0,0x1F,0xF0
	.DB  0x7,0x0,0x0,0x0,0x0,0x0,0x7C,0x0
	.DB  0x38,0x0,0x3C,0x1C,0xE0,0x1F,0xF8,0x3
	.DB  0x0,0x0,0x0,0x0,0x0,0xF8,0x0,0x78
	.DB  0x0,0x3C,0x1C,0xE0,0x1F,0xF8,0x1,0x0
	.DB  0x0,0x0,0x0,0x0,0xE0,0x1,0x78,0x0
	.DB  0x3C,0x1C,0xE0,0x1F,0xFC,0x0,0x0,0xF0
	.DB  0xFF,0x7,0x0,0xC0,0x3,0x78,0x0,0x3C
	.DB  0x1C,0xE0,0x1F,0x7C,0x0,0x0,0xFF,0xFF
	.DB  0x7F,0x0,0x80,0x7,0x78,0x0,0x3C,0x1C
	.DB  0xE0,0x1F,0x3E,0x0,0xE0,0xFF,0xFF,0xFF
	.DB  0x3,0x0,0xF,0x78,0x0,0x3C,0x1C,0xE0
	.DB  0xF,0x3E,0x0,0xFC,0x7F,0x0,0x0,0x0
	.DB  0x0,0x1E,0x38,0x0,0x3C,0x1C,0xF0,0xF
	.DB  0x1E,0x0,0xFF,0xF,0x0,0x0,0x0,0x0
	.DB  0x3C,0x38,0x0,0x3C,0x1C,0xF0,0xF,0x1E
	.DB  0x80,0xFF,0x3,0x0,0x0,0x0,0x0,0x38
	.DB  0x38,0x0,0x3E,0x1C,0xF0,0xF,0xF,0xC0
	.DB  0xFF,0x0,0x80,0x3,0x0,0x0,0x70,0x38
	.DB  0x0,0x3E,0x1C,0xF0,0xF,0xF,0xF0,0x7F
	.DB  0x0,0xFC,0x3,0x0,0x0,0x70,0x3C,0x0
	.DB  0x3E,0x3C,0xF0,0xF,0xF,0xF0,0x1F,0x80
	.DB  0xFF,0x60,0x0,0x0,0xE0,0x3C,0x0,0x3E
	.DB  0x38,0xF0,0xF,0x6,0xF8,0xF,0xC0,0x3F
	.DB  0x30,0x0,0x0,0xE0,0x1C,0x0,0x3E,0x38
	.DB  0xF0,0xF,0x6,0xFC,0x7,0xE0,0x1F,0x38
	.DB  0x0,0x0,0xE0,0x1C,0x0,0x1F,0x38,0xF0
	.DB  0xF,0x6,0xFC,0x7,0xF0,0xF,0x18,0x0
	.DB  0x0,0xE0,0xE,0x0,0x1F,0x38,0xF0,0x1F
	.DB  0x6,0xFE,0x3,0xF8,0x7,0x1C,0x0,0x0
	.DB  0xE0,0xE,0x0,0x1F,0x38,0xF0,0x1F,0x6
	.DB  0xFE,0x1,0xFC,0x3,0x1E,0x0,0x0,0xE0
	.DB  0x7,0x0,0x1F,0x30,0xE0,0x1F,0x6,0xFE
	.DB  0x1,0xFC,0x1,0xE,0x0,0x0,0xE0,0x7
	.DB  0x80,0xF,0x70,0xE0,0x1F,0x0,0xFF,0x1
	.DB  0xFE,0x1,0xF,0x0,0x0,0xE0,0x3,0x80
	.DB  0xF,0x70,0xE0,0x1F,0x0,0xFF,0x0,0xFE
	.DB  0x0,0xF,0x0,0x0,0xF0,0x1,0xC0,0xF
	.DB  0x60,0xE0,0x1F,0x0,0xFF,0x0,0xFF,0x0
	.DB  0xF,0x0,0x0,0xF0,0x0,0xC0,0xF,0xE0
	.DB  0xE0,0x3F,0x0,0xFF,0x0,0x7F,0x0,0xF
	.DB  0x0,0x0,0x70,0x0,0xC0,0x7,0xE0,0xE0
	.DB  0x3F,0x0,0x7F,0x0,0x7F,0x80,0x1F,0x0
	.DB  0x0,0x38,0x0,0xE0,0x7,0xC0,0xE0,0x3F
	.DB  0x0,0x7F,0x80,0x7F,0x80,0x1F,0x0,0x0
	.DB  0x8,0x0,0xE0,0x3,0xC0,0xC0,0x3F,0x0
	.DB  0x7F,0x80,0x3F,0x80,0x1F,0x0,0x0,0x0
	.DB  0x0,0xF0,0x3,0x80,0xC1,0x7F,0x0,0x7F
	.DB  0x80,0x3F,0x80,0x1F,0x0,0x0,0x0,0x0
	.DB  0xF0,0x3,0x80,0xC1,0x7F,0x0,0x7F,0x80
	.DB  0x3F,0x0,0x3F,0x0,0x0,0x0,0x0,0xF8
	.DB  0x1,0x0,0xC3,0xFF,0x0,0x7F,0x80,0x3F
	.DB  0x0,0x3F,0x0,0x0,0x0,0x0,0xFC,0x1
	.DB  0x0,0x83,0xFF,0x0,0x7F,0x80,0x3F,0x0
	.DB  0x7F,0x0,0x0,0x0,0x0,0xFC,0x0,0x0
	.DB  0x82,0xFF,0x1,0x7E,0x80,0x3F,0x0,0xFE
	.DB  0x0,0x0,0x0,0x0,0xFE,0x0,0x0,0x84
	.DB  0xFF,0x1,0x7E,0x0,0x3F,0x0,0xFE,0x0
	.DB  0x0,0x0,0x0,0x7F,0x0,0x0,0x4,0xFF
	.DB  0x3,0x7E,0x0,0x3F,0x0,0xFC,0x1,0x0
	.DB  0x0,0x0,0x7F,0x0,0x0,0x0,0xFF,0x3
	.DB  0x7C,0x0,0x3F,0x0,0xF8,0x3,0x0,0x0
	.DB  0x80,0x3F,0x0,0x0,0x0,0xFF,0x7,0xFC
	.DB  0x0,0x3E,0x0,0xF0,0xF,0x0,0x0,0xC0
	.DB  0x1F,0x0,0x0,0x0,0xFE,0x7,0xF8,0x0
	.DB  0x7E,0x0,0xE0,0x3F,0x0,0x0,0xE0,0x1F
	.DB  0x0,0x0,0x0,0xFE,0xF,0xF0,0x0,0x7E
	.DB  0x0,0x80,0xFF,0x83,0x1,0xF0,0xF,0x0
	.DB  0x0,0x0,0xFC,0x1F,0xF0,0x0,0x7C,0x0
	.DB  0x0,0xFE,0x7F,0x0,0xF8,0xF,0x0,0x0
	.DB  0x0,0xFC,0x3F,0xE0,0x1,0x78,0x0,0x0
	.DB  0xF0,0xF,0x0,0xFC,0x7,0x0,0x0,0x0
	.DB  0xF8,0x7F,0xC0,0x1,0xF8,0x0,0x0,0x0
	.DB  0x0,0x0,0xFE,0x3,0x0,0x0,0x0,0xF8
	.DB  0x7F,0x80,0x1,0xF0,0x0,0x0,0x0,0x0
	.DB  0x0,0xFF,0x1,0x0,0x0,0x0,0xF0,0xFF
	.DB  0x0,0x3,0xF0,0x1,0x0,0x0,0x0,0x80
	.DB  0xFF,0x0,0x0,0x0,0x0,0xF0,0xFF,0x3
	.DB  0x0,0xE0,0x1,0x0,0x0,0x0,0xE0,0xFF
	.DB  0x0,0x0,0x0,0x0,0xE0,0xFF,0x7,0x0
	.DB  0xC0,0x3,0x0,0x0,0x0,0xF0,0x7F,0x0
	.DB  0x0,0x0,0x0,0xC0,0xFF,0xF,0x0,0x80
	.DB  0x7,0x0,0x0,0x0,0xFC,0x3F,0x0,0x0
	.DB  0x0,0x0,0xC0,0xFF,0x1F,0x0,0x0,0x6
	.DB  0x0,0x0,0x0,0xFE,0x1F,0x0,0x0,0x0
	.DB  0x0,0x80,0xFF,0x7F,0x0,0x0,0xC,0x0
	.DB  0x0,0x80,0xFF,0xF,0x0,0x0,0x0,0x0
	.DB  0x0,0xFF,0xFF,0x1,0x0,0x10,0x0,0x0
	.DB  0xE0,0xFF,0x7,0x0,0x0,0x0,0x0,0x0
	.DB  0xFE,0xFF,0x7,0x0,0x0,0x0,0x0,0xF8
	.DB  0xFF,0x3,0x0,0x0,0x0,0x0,0x0,0xFC
	.DB  0xFF,0x1F,0x0,0x0,0x0,0x0,0xFF,0xFF
	.DB  0x0,0x0,0x0,0x0,0x0,0x0,0xF8,0xFF
	.DB  0x7F,0x0,0x0,0x0,0xE0,0xFF,0x7F,0x0
	.DB  0x0,0x0,0x0,0x0,0x0,0xF0,0xFF,0xFF
	.DB  0x3,0x0,0x0,0xFC,0xFF,0x3F,0x0,0x0
	.DB  0x0,0x0,0x0,0x0,0xE0,0xFF,0xFF,0x7F
	.DB  0x0,0xF0,0xFF,0xFF,0xF,0x0,0x0,0x0
	.DB  0x0,0x0,0x0,0x80,0xFF,0xFF,0xFF,0xFF
	.DB  0xFF,0xFF,0xFF,0x7,0x0,0x0,0x0,0x0
	.DB  0x0,0x0,0x0,0xFF,0xFF,0xFF,0xFF,0xFF
	.DB  0xFF,0xFF,0x1,0x0,0x0,0x0,0x0,0x0
	.DB  0x0,0x0,0xFC,0xFF,0xFF,0xFF,0xFF,0xFF
	.DB  0x7F,0x0,0x0,0x0,0x0,0x0,0x0,0x0
	.DB  0x0,0xF0,0xFF,0xFF,0xFF,0xFF,0xFF,0x3F
	.DB  0x0,0x0,0x0,0x0,0x0,0x0,0x0,0x0
	.DB  0xC0,0xFF,0xFF,0xFF,0xFF,0xFF,0x7,0x0
	.DB  0x0,0x0,0x0,0x0,0x0,0x0,0x0,0x0
	.DB  0xFF,0xFF,0xFF,0xFF,0xFF,0x1,0x0,0x0
	.DB  0x0,0x0,0x0,0x0,0x0,0x0,0x0,0xF8
	.DB  0xFF,0xFF,0xFF,0x3F,0x0,0x0,0x0,0x0
	.DB  0x0,0x0,0x0,0x0,0x0,0x0,0x80,0xFF
	.DB  0xFF,0xFF,0x3,0x0,0x0,0x0,0x0,0x0
	.DB  0x0,0x0,0x0,0x0,0x0,0x0,0xF0,0xFF
	.DB  0x1F,0x0,0x0,0x0,0x0,0x0,0x0,0x0
	.DB  0x0,0x0,0x0,0x0,0x0,0x0,0x0,0x0
	.DB  0x0,0x0,0x0,0x0,0x0,0x0,0x0,0x0
	.DB  0x0,0x0,0x0,0x0,0x0,0x0,0x0,0x0
	.DB  0x0,0x0,0x0,0x0,0x0,0x0,0x0,0x0
	.DB  0x0,0x0,0x0,0x0,0x0,0x0,0x0,0x0
	.DB  0x0,0x0,0x0,0x0
_taleb:
	.DB  0x78,0x0,0x78,0x0,0x0,0x0,0x0,0x0
	.DB  0x0,0x0,0x0,0x0,0x0,0x0,0x0,0x0
	.DB  0x0,0x0,0x0,0x0,0x0,0x0,0x0,0x0
	.DB  0x0,0x0,0x0,0x0,0x0,0x0,0x0,0x0
	.DB  0x0,0x0,0x0,0x0,0x0,0x0,0x0,0x0
	.DB  0x0,0x0,0x0,0x0,0x0,0x0,0x0,0x0
	.DB  0x0,0x0,0x0,0x0,0x0,0x0,0x0,0x0
	.DB  0x0,0x0,0x0,0x0,0x0,0x0,0x0,0x0
	.DB  0x0,0x0,0x0,0x0,0x0,0x0,0x0,0x0
	.DB  0x0,0x0,0x0,0x0,0x0,0x0,0x0,0x0
	.DB  0x0,0x0,0x0,0x0,0x0,0x0,0x0,0x0
	.DB  0x0,0x0,0x0,0x0,0x0,0x0,0x0,0x0
	.DB  0x0,0x0,0x0,0x0,0x0,0x0,0x0,0x0
	.DB  0x0,0x0,0x0,0x0,0x0,0x0,0x0,0x0
	.DB  0x0,0x0,0x0,0x0,0x0,0x0,0x0,0x0
	.DB  0x0,0x0,0x0,0x0,0x0,0x0,0x0,0x0
	.DB  0x0,0x0,0x0,0x0,0x0,0x0,0x0,0x0
	.DB  0x0,0x38,0x0,0x0,0xF8,0x3,0x0,0x0
	.DB  0x0,0x0,0x0,0x0,0x0,0x0,0x0,0x0
	.DB  0x38,0x0,0x0,0xF8,0x7,0x0,0x0,0x0
	.DB  0x0,0x0,0x0,0x0,0x0,0x0,0x0,0x38
	.DB  0x0,0x0,0xF8,0xF,0x0,0x0,0x0,0x0
	.DB  0x0,0x0,0x0,0x0,0x0,0x0,0x38,0x0
	.DB  0x0,0x38,0xEF,0xF7,0xC7,0xDF,0xFF,0xE7
	.DB  0xFF,0xE3,0xFF,0xE3,0xC7,0x3F,0x0,0x0
	.DB  0x38,0xEF,0xFF,0xEF,0xDF,0xFF,0xEF,0xFF
	.DB  0xE7,0xFF,0xF3,0xEF,0x3F,0x0,0x0,0xB8
	.DB  0xEF,0x7F,0xEF,0xCE,0x7F,0xEF,0xFF,0xE7
	.DB  0xFF,0x73,0xEF,0x3F,0x0,0x0,0xF8,0xE7
	.DB  0x38,0xEE,0xCE,0x83,0xEF,0x39,0xE7,0x9C
	.DB  0xFB,0xEF,0x3C,0x0,0x0,0xF8,0xE3,0x38
	.DB  0xEE,0xCF,0xF1,0xEF,0x39,0xE7,0x9C,0xFB
	.DB  0xEF,0x38,0x0,0x0,0x38,0xE0,0x38,0xEE
	.DB  0xCF,0xF1,0xEF,0x39,0xE7,0x9C,0xFB,0xEF
	.DB  0x38,0x0,0x0,0x38,0xE0,0x78,0xEF,0xC0
	.DB  0x71,0xEE,0x39,0xE7,0x9C,0x7B,0xE0,0x3D
	.DB  0x0,0x0,0x38,0xE0,0xF8,0xEF,0xDF,0xF1
	.DB  0xEF,0x39,0xE7,0x9C,0xF3,0xEF,0x3F,0x0
	.DB  0x0,0x38,0xE0,0xF0,0xE7,0xDF,0xF1,0xEF
	.DB  0x39,0xE7,0x9C,0xF3,0xCF,0x3F,0x0,0x0
	.DB  0x0,0x0,0xC0,0xF1,0x1C,0xE0,0x0,0x0
	.DB  0x0,0x0,0xC0,0x83,0x3,0x0,0x0,0x0
	.DB  0x0,0x0,0xF0,0x1F,0x0,0x0,0x0,0x0
	.DB  0x0,0x0,0x0,0x0,0x0,0x0,0x0,0x0
	.DB  0x0,0xF0,0x1F,0x0,0x0,0x0,0x0,0x0
	.DB  0x0,0x0,0x0,0x0,0x0,0x0,0x0,0x0
	.DB  0xC0,0x7,0x0,0x0,0x0,0x0,0x0,0x0
	.DB  0x0,0x0,0x0,0x0,0x0,0x0,0x0,0x0
	.DB  0x0,0x0,0x0,0x0,0x0,0x0,0x0,0x0
	.DB  0x0,0x0,0x0,0x0,0x0,0x0,0x0,0x0
	.DB  0x0,0x0,0x0,0x0,0x0,0x0,0x0,0x0
	.DB  0x0,0x0,0x0,0x0,0x0,0x0,0x0,0x0
	.DB  0x0,0x0,0x0,0x0,0x0,0x0,0x0,0x0
	.DB  0x0,0x0,0x0,0x0,0x0,0x0,0x0,0x0
	.DB  0x0,0x0,0x0,0x0,0x0,0x0,0x0,0x0
	.DB  0x0,0x0,0x0,0x0,0x0,0x0,0x0,0x0
	.DB  0x0,0x0,0x0,0x0,0x0,0x0,0x0,0x0
	.DB  0x0,0x0,0x0,0x0,0x0,0x0,0x0,0x0
	.DB  0x0,0x0,0x0,0x0,0x0,0x0,0x0,0x0
	.DB  0x0,0x0,0x0,0x0,0x0,0x0,0x0,0x0
	.DB  0x0,0x0,0x0,0x0,0x0,0x0,0x0,0x0
	.DB  0x0,0x0,0x0,0x0,0x0,0x0,0x0,0x0
	.DB  0x0,0x0,0x0,0x0,0x0,0x0,0x0,0x0
	.DB  0x0,0xF8,0x3,0x0,0x0,0x0,0x0,0x0
	.DB  0x0,0x0,0x0,0x0,0x0,0x0,0x0,0x0
	.DB  0xF8,0x7,0x0,0x0,0x0,0x0,0x0,0x0
	.DB  0x0,0x0,0x0,0x0,0x0,0x0,0x0,0xF8
	.DB  0xF,0x0,0x0,0x0,0x0,0x0,0x0,0x0
	.DB  0x0,0x0,0x0,0x0,0x0,0x0,0x38,0x7F
	.DB  0x1C,0x0,0x0,0x0,0x0,0x0,0x0,0x0
	.DB  0x0,0x0,0x0,0x0,0x0,0xB8,0xF7,0x1C
	.DB  0x0,0x0,0x0,0x0,0x0,0x0,0x0,0x0
	.DB  0x0,0x0,0x0,0x0,0xF8,0xE7,0x1C,0x0
	.DB  0x0,0x0,0x0,0x0,0x0,0x0,0x0,0x0
	.DB  0x0,0x0,0x0,0xF8,0xEF,0x1F,0x0,0x0
	.DB  0x0,0x0,0x0,0x0,0x0,0x0,0x0,0x0
	.DB  0x0,0x0,0x38,0xEF,0xF,0x0,0x0,0x0
	.DB  0x0,0x0,0x0,0x0,0x0,0x0,0x0,0x0
	.DB  0x0,0x38,0xCE,0xF,0x0,0x0,0x0,0x0
	.DB  0x0,0x0,0x0,0x0,0x0,0x0,0x0,0x0
	.DB  0x38,0xCF,0xF,0x0,0x0,0x0,0x0,0x0
	.DB  0x0,0x0,0x0,0x0,0x0,0x0,0x0,0xF8
	.DB  0xCF,0x7,0x0,0x0,0x0,0x0,0x0,0x0
	.DB  0x0,0x0,0x0,0x0,0x0,0x0,0xF8,0x87
	.DB  0x7,0x0,0x0,0x0,0x0,0x0,0x0,0x0
	.DB  0x0,0x0,0x0,0x0,0x0,0x0,0x80,0x7
	.DB  0x0,0x0,0x0,0x0,0x0,0x0,0x0,0x0
	.DB  0x0,0x0,0x0,0x0,0x0,0x80,0x3,0x0
	.DB  0x0,0x0,0x0,0x0,0x0,0x0,0x0,0x0
	.DB  0x0,0x0,0x0,0x0,0xC0,0x3,0x0,0x0
	.DB  0x0,0x0,0x0,0x0,0x0,0x0,0x0,0x0
	.DB  0x0,0x0,0x0,0xC0,0x1,0x0,0x0,0x0
	.DB  0x0,0x0,0x0,0x0,0x0,0x0,0x0,0x0
	.DB  0x0,0x0,0x0,0x0,0x0,0x0,0x0,0x0
	.DB  0x0,0x0,0x0,0x0,0x0,0x0,0x0,0x0
	.DB  0x0,0x0,0x0,0x0,0x0,0x0,0x0,0x0
	.DB  0x0,0x0,0x0,0x0,0x0,0x0,0x0,0x0
	.DB  0x0,0x0,0x0,0x0,0x0,0x0,0x0,0x0
	.DB  0x0,0x0,0x0,0x0,0x0,0x0,0x0,0x0
	.DB  0x0,0x0,0x0,0x0,0x0,0x0,0x0,0x0
	.DB  0x0,0x0,0x0,0x0,0x0,0xFE,0xFF,0x3F
	.DB  0x0,0x0,0x0,0x0,0x0,0x0,0x0,0x0
	.DB  0x0,0x0,0x0,0x0,0xFF,0xFF,0x3F,0x0
	.DB  0x0,0x0,0x0,0x0,0x0,0x0,0x0,0x0
	.DB  0x0,0x0,0x0,0xFF,0xFF,0x7F,0x0,0x0
	.DB  0x0,0x0,0x0,0x0,0x0,0x0,0x0,0x0
	.DB  0x0,0x0,0xFF,0xFF,0x7F,0x0,0x0,0x0
	.DB  0x0,0x0,0x0,0x0,0x0,0x0,0x0,0x0
	.DB  0x0,0xFF,0xFF,0x7F,0x0,0x0,0x0,0x0
	.DB  0x0,0x0,0x0,0x0,0x0,0x0,0x0,0x0
	.DB  0xFF,0xFF,0x3F,0x0,0x0,0x0,0x0,0x0
	.DB  0x0,0x0,0x0,0x0,0x0,0x0,0x0,0xFF
	.DB  0x1,0x0,0x0,0x0,0x0,0x0,0x0,0x0
	.DB  0x0,0x0,0x0,0x0,0x0,0x0,0xFE,0x1
	.DB  0x0,0x0,0x0,0x0,0x0,0x0,0x0,0x0
	.DB  0x0,0x0,0x0,0x0,0x0,0xFC,0x3,0x0
	.DB  0x0,0x0,0x0,0x0,0x0,0x0,0x0,0x0
	.DB  0x0,0x0,0x0,0x0,0xFC,0x7,0x0,0x0
	.DB  0x0,0x0,0x0,0x0,0x0,0x0,0x0,0x0
	.DB  0x0,0x0,0x0,0xF8,0xF,0x0,0x0,0x0
	.DB  0x0,0x0,0x0,0x0,0x0,0x0,0x0,0x0
	.DB  0x0,0x0,0xF0,0x1F,0x0,0x0,0x0,0x0
	.DB  0x0,0x0,0x0,0x0,0x0,0x0,0x0,0x0
	.DB  0x0,0xE0,0x3F,0x0,0x0,0x0,0x0,0x0
	.DB  0x0,0x0,0x0,0x0,0x0,0x0,0x0,0x0
	.DB  0xC0,0x7F,0x0,0x0,0x0,0x0,0x0,0x0
	.DB  0x0,0x0,0x0,0x0,0x0,0x0,0x0,0x80
	.DB  0x7F,0x0,0x0,0x0,0x0,0x0,0x0,0x0
	.DB  0x0,0x0,0x0,0x0,0x0,0x0,0x80,0xFF
	.DB  0x0,0x0,0x0,0x0,0x0,0x0,0x0,0x0
	.DB  0x0,0x0,0x0,0x0,0x0,0x0,0xFF,0x1
	.DB  0x0,0x0,0x0,0x0,0x0,0x0,0x0,0x0
	.DB  0x0,0x0,0x0,0x0,0x0,0xFE,0x3,0x0
	.DB  0x0,0x0,0x0,0x0,0x0,0x0,0x0,0x0
	.DB  0x0,0x0,0x0,0x0,0xFC,0x7,0x0,0x0
	.DB  0x0,0x0,0x0,0x0,0x0,0x0,0x0,0x0
	.DB  0x0,0x0,0x0,0xF8,0x7,0x0,0x0,0x0
	.DB  0x0,0x0,0x0,0x0,0x0,0x0,0x0,0x0
	.DB  0x0,0x0,0xF8,0x7,0x0,0x0,0x0,0x0
	.DB  0x0,0x0,0x0,0x0,0x0,0x0,0x0,0x0
	.DB  0x0,0xFC,0x7,0x0,0x0,0x0,0x0,0x0
	.DB  0x0,0x0,0x0,0x0,0x0,0x0,0x0,0x0
	.DB  0xFE,0x3,0x0,0x0,0x0,0x0,0x0,0x0
	.DB  0x0,0x0,0x0,0x0,0x0,0x0,0x0,0xFE
	.DB  0x1,0x0,0x0,0x0,0x0,0x0,0x0,0x0
	.DB  0x0,0x0,0x0,0x0,0x0,0x0,0xFF,0x0
	.DB  0x0,0x0,0x0,0x0,0x0,0x0,0x0,0x0
	.DB  0x0,0x0,0x0,0x0,0x80,0x7F,0x0,0x0
	.DB  0x0,0x0,0x0,0x0,0x0,0x0,0x0,0x0
	.DB  0x0,0x0,0x0,0xC0,0x7F,0x0,0x0,0x0
	.DB  0x0,0x0,0x0,0x0,0x0,0x0,0x0,0x0
	.DB  0x0,0x0,0xE0,0x3F,0x0,0x0,0x0,0x0
	.DB  0x0,0x0,0x0,0x0,0x0,0x0,0x0,0x0
	.DB  0x0,0xF0,0x1F,0x0,0x0,0x0,0x0,0x0
	.DB  0x0,0x0,0x0,0x0,0x0,0x0,0x0,0x0
	.DB  0xF0,0xF,0x0,0x0,0x0,0x0,0x0,0x0
	.DB  0x0,0x0,0x0,0x0,0x0,0x0,0x0,0xF8
	.DB  0x7,0x0,0x0,0x0,0x0,0x0,0x0,0x0
	.DB  0x0,0x0,0x0,0x0,0x0,0x0,0xFC,0x3
	.DB  0x0,0x0,0x0,0x0,0x0,0x0,0x0,0x0
	.DB  0x0,0x0,0x0,0x0,0x0,0xFE,0x3,0x0
	.DB  0x0,0x0,0x0,0x0,0x0,0x0,0x0,0x0
	.DB  0x0,0x0,0x0,0x0,0xFF,0x1,0x0,0x0
	.DB  0x0,0x0,0x0,0x0,0x0,0x0,0x0,0x0
	.DB  0x0,0x0,0x0,0xFF,0x0,0x0,0x0,0x0
	.DB  0x0,0x0,0x0,0x0,0x0,0x0,0x0,0x0
	.DB  0x0,0x0,0xFF,0xFF,0x7F,0x0,0x0,0x0
	.DB  0x0,0x0,0x0,0x0,0x0,0x0,0x0,0x0
	.DB  0x0,0xFF,0xFF,0x7F,0x0,0x0,0x0,0x0
	.DB  0x0,0x0,0x0,0x0,0x0,0x0,0x0,0x0
	.DB  0xFF,0xFF,0x7F,0x0,0x0,0x0,0x0,0x0
	.DB  0x0,0x0,0x0,0x0,0x0,0x0,0x0,0xFF
	.DB  0xFF,0x7F,0x0,0x0,0x0,0x0,0x0,0x0
	.DB  0x0,0x0,0x0,0x0,0x0,0x0,0xFF,0xFF
	.DB  0x7F,0x0,0x0,0x0,0x0,0x0,0x0,0x0
	.DB  0x0,0x0,0x0,0x0,0x0,0xFF,0xFF,0x7F
	.DB  0x0,0x0,0x0,0x0,0x0,0x0,0x0,0x0
	.DB  0x0,0x0,0x0,0x0,0x0,0x0,0x0,0x0
	.DB  0x0,0x0,0x0,0x0,0x0,0x0,0x0,0x0
	.DB  0x0,0x0,0x0,0x0,0x0,0x0,0x0,0x0
	.DB  0x0,0x0,0x0,0x0,0x0,0x0,0x0,0x0
	.DB  0x0,0x0,0x0,0x0,0x0,0x0,0x0,0x0
	.DB  0x0,0x0,0x0,0x0,0x0,0x0,0x0,0x0
	.DB  0x0,0x0,0x0,0x0,0x0,0x0,0x0,0x0
	.DB  0x0,0x0,0x0,0x0,0x0,0x0,0x0,0x0
	.DB  0x0,0x0,0x0,0x0,0x0,0x0,0x0,0x0
	.DB  0x0,0x0,0x0,0x0,0x0,0x0,0x0,0x0
	.DB  0x0,0x0,0x0,0x0,0x0,0x0,0x0,0x0
	.DB  0x0,0x7,0xE,0x70,0x0,0x0,0x0,0x0
	.DB  0x0,0x0,0x0,0x0,0xC3,0x3C,0x0,0x0
	.DB  0xF,0xF,0xFC,0x0,0x0,0x0,0x0,0x0
	.DB  0x0,0x0,0x0,0xE7,0xFC,0x1,0x0,0x1F
	.DB  0xF,0xFC,0x0,0x0,0x0,0x0,0x0,0x0
	.DB  0x0,0x0,0xE7,0xFC,0x1,0x0,0x9F,0xF
	.DB  0x1C,0x0,0x0,0x0,0x0,0x0,0x0,0x0
	.DB  0x0,0xE7,0xDC,0x3,0x0,0x9F,0xF,0x3C
	.DB  0x0,0x0,0x0,0x0,0x0,0x0,0x0,0x0
	.DB  0xFF,0xDC,0x3,0x0,0xFB,0xF,0xFC,0x0
	.DB  0x0,0x0,0x0,0x0,0x0,0x0,0x0,0xFF
	.DB  0xFC,0x1,0x0,0xFB,0xF,0xF8,0x1,0x0
	.DB  0x0,0x0,0x0,0x0,0x0,0x0,0xFF,0xFC
	.DB  0x1,0x0,0xFB,0xF,0xE0,0x1,0x0,0x0
	.DB  0x0,0x0,0x0,0x0,0x0,0xE7,0xFC,0x0
	.DB  0x0,0xF3,0xCE,0xC6,0x1,0x0,0x0,0x0
	.DB  0x0,0x0,0x0,0x0,0xE7,0x1C,0x0,0x0
	.DB  0xF3,0xCE,0xFF,0x1,0x0,0x0,0x0,0x0
	.DB  0x0,0x0,0x0,0xE7,0x1C,0x0,0x0,0xF3
	.DB  0xCE,0xFF,0x0,0x0,0x0,0x0,0x0,0x0
	.DB  0x0,0x0,0xE7,0x1C,0x0,0x0,0x0,0xC0
	.DB  0x38,0x0,0x0,0x0,0x0,0x0,0x0,0x0
	.DB  0x0,0x0,0x0,0x0,0x0,0x0,0x0,0x0
	.DB  0x0,0x0,0x0,0x0,0x0,0x0,0x0,0x0
	.DB  0x0,0x0,0x0,0x0,0x0,0x0,0x0,0x0
	.DB  0x0,0x0,0x0,0x0,0x0,0x0,0x0,0x0
	.DB  0x0,0x0,0x0,0x0,0x0,0x0,0x0,0x0
	.DB  0x0,0x0,0x0,0x0,0x0,0x0,0x0,0x0
	.DB  0x0,0x0,0x0,0x0,0x0,0x0,0x0,0x0
	.DB  0x0,0x0,0x0,0x0,0x0,0x0,0x0,0x0
	.DB  0x0,0x0,0x0,0x0,0x0,0x0,0x0,0x0
	.DB  0x0,0x0,0x0,0x0,0x0,0x0,0x0,0x0
	.DB  0x0,0x0,0x0,0x0,0x0,0x0,0x0,0x0
	.DB  0x0,0x0,0x0,0x0,0x0,0x0,0x0,0x0
	.DB  0x0,0x0,0x0,0x0,0x0,0x0,0x0,0x0
	.DB  0x0,0x0,0x0,0x0,0x0,0x0,0x0,0x0
	.DB  0x0,0x0,0x0,0x0,0x0,0x0,0x0,0x0
	.DB  0x0,0x0,0x0,0x0
__glcd_mask:
	.DB  0x0,0x1,0x3,0x7,0xF,0x1F,0x3F,0x7F
	.DB  0xFF

;REGISTER BIT VARIABLES INITIALIZATION
__REG_BIT_VARS:
	.DW  0x0002

_0x3:
	.DB  0x61
_0xC:
	.DB  0x0,0x0,0x1F,0x0,0x3C,0x0,0x5B,0x0
	.DB  0x79,0x0,0x98,0x0,0xB6,0x0,0xD5,0x0
	.DB  0xF4,0x0,0x12,0x1,0x31,0x1,0x4F,0x1
	.DB  0x0,0x0,0x1F,0x0,0x3B,0x0,0x5A,0x0
	.DB  0x78,0x0,0x97,0x0,0xB5,0x0,0xD4,0x0
	.DB  0xF3,0x0,0x11,0x1,0x30,0x1,0x4E,0x1
_0x24:
	.DB  0x1E,0x0,0x1F,0x0,0x1E,0x0,0x1F,0x0
	.DB  0x1F,0x0,0x1E,0x0,0x1F,0x0,0x1E,0x0
	.DB  0x1F,0x0,0x1F,0x0,0x1C,0x0,0x1F,0x0
_0x34:
	.DB  LOW(_0x33),HIGH(_0x33),LOW(_0x33+10),HIGH(_0x33+10),LOW(_0x33+20),HIGH(_0x33+20),LOW(_0x33+30),HIGH(_0x33+30)
	.DB  LOW(_0x33+40),HIGH(_0x33+40),LOW(_0x33+50),HIGH(_0x33+50),LOW(_0x33+60),HIGH(_0x33+60)
_0x36:
	.DB  LOW(_0x35),HIGH(_0x35),LOW(_0x35+10),HIGH(_0x35+10),LOW(_0x35+20),HIGH(_0x35+20),LOW(_0x35+30),HIGH(_0x35+30)
	.DB  LOW(_0x35+40),HIGH(_0x35+40),LOW(_0x35+50),HIGH(_0x35+50),LOW(_0x35+60),HIGH(_0x35+60),LOW(_0x35+70),HIGH(_0x35+70)
	.DB  LOW(_0x35+80),HIGH(_0x35+80),LOW(_0x35+90),HIGH(_0x35+90),LOW(_0x35+100),HIGH(_0x35+100),LOW(_0x35+110),HIGH(_0x35+110)
_0x0:
	.DB  0x53,0x75,0x6E,0x64,0x61,0x79,0x20,0x20
	.DB  0x20,0x0,0x4D,0x6F,0x6E,0x64,0x61,0x79
	.DB  0x20,0x20,0x20,0x0,0x54,0x75,0x65,0x73
	.DB  0x64,0x61,0x79,0x20,0x20,0x0,0x57,0x65
	.DB  0x64,0x65,0x6E,0x73,0x64,0x61,0x79,0x0
	.DB  0x54,0x68,0x75,0x72,0x73,0x64,0x61,0x79
	.DB  0x20,0x0,0x46,0x72,0x69,0x64,0x61,0x79
	.DB  0x20,0x20,0x20,0x0,0x53,0x61,0x74,0x75
	.DB  0x72,0x64,0x61,0x79,0x20,0x0,0x4A,0x61
	.DB  0x6E,0x75,0x61,0x72,0x79,0x20,0x20,0x0
	.DB  0x46,0x65,0x62,0x72,0x75,0x61,0x72,0x79
	.DB  0x20,0x0,0x4D,0x61,0x72,0x63,0x68,0x20
	.DB  0x20,0x20,0x20,0x0,0x41,0x70,0x72,0x69
	.DB  0x6C,0x20,0x20,0x20,0x20,0x0,0x4D,0x61
	.DB  0x79,0x20,0x20,0x20,0x20,0x20,0x20,0x0
	.DB  0x4A,0x75,0x6E,0x65,0x20,0x20,0x20,0x20
	.DB  0x20,0x0,0x4A,0x75,0x6C,0x79,0x20,0x20
	.DB  0x20,0x20,0x20,0x0,0x41,0x75,0x67,0x75
	.DB  0x73,0x74,0x20,0x20,0x20,0x0,0x53,0x65
	.DB  0x70,0x74,0x65,0x6D,0x62,0x65,0x72,0x0
	.DB  0x4F,0x63,0x74,0x6F,0x62,0x65,0x72,0x20
	.DB  0x20,0x0,0x4E,0x6F,0x76,0x65,0x6D,0x62
	.DB  0x65,0x72,0x20,0x0,0x44,0x65,0x63,0x65
	.DB  0x6D,0x62,0x65,0x72,0x20,0x0,0x2D,0x2D
	.DB  0x2D,0x2D,0x2D,0x2D,0x2D,0x2D,0x2D,0x2D
	.DB  0x2D,0x2D,0x2D,0x2D,0x2D,0x2D,0x2D,0x2D
	.DB  0x2D,0x2D,0x2D,0x2B,0x2B,0x2D,0x2D,0x2D
	.DB  0x2D,0x2D,0x2D,0x2D,0x2D,0x2D,0x2D,0x2D
	.DB  0x2D,0x2D,0x2D,0x2D,0x2D,0x2D,0x0,0x2D
	.DB  0x2D,0x2D,0x2D,0x2D,0x2D,0x2D,0x2D,0x2D
	.DB  0x2D,0x2D,0x2D,0x2D,0x2D,0x2D,0x2D,0x2D
	.DB  0x2D,0x2B,0x2B,0x2D,0x2D,0x2D,0x2D,0x2D
	.DB  0x2D,0x2D,0x2D,0x2D,0x2D,0x2D,0x2D,0x2D
	.DB  0x2D,0x2D,0x2D,0x2D,0x2D,0x2D,0x2D,0x0
	.DB  0x2D,0x2D,0x2D,0x2D,0x2D,0x2D,0x2D,0x2D
	.DB  0x2D,0x2D,0x2D,0x2D,0x2D,0x2D,0x2D,0x2B
	.DB  0x2B,0x2D,0x2D,0x2D,0x2D,0x2D,0x2D,0x2D
	.DB  0x2D,0x2D,0x2D,0x2D,0x2D,0x2D,0x2D,0x2D
	.DB  0x2D,0x2D,0x2D,0x2D,0x2D,0x2D,0x2D,0x2D
	.DB  0x0,0x2D,0x2D,0x2D,0x2D,0x2D,0x2D,0x2D
	.DB  0x2D,0x2D,0x2D,0x2D,0x2D,0x2D,0x2D,0x2D
	.DB  0x2D,0x2D,0x2D,0x2D,0x2D,0x2D,0x2D,0x2D
	.DB  0x2D,0x2D,0x2D,0x2D,0x2D,0x2D,0x2D,0x2D
	.DB  0x2D,0x2D,0x2D,0x2D,0x2D,0x2D,0x2D,0x2B
	.DB  0x2B,0x0,0x2D,0x2D,0x2D,0x2D,0x2D,0x2D
	.DB  0x2D,0x2D,0x2D,0x2D,0x2D,0x2D,0x2D,0x2D
	.DB  0x2D,0x2D,0x2D,0x2D,0x2D,0x2D,0x2D,0x2D
	.DB  0x2D,0x2D,0x2D,0x2D,0x2D,0x2D,0x2D,0x2D
	.DB  0x2D,0x2D,0x2D,0x2D,0x2D,0x2B,0x2B,0x2D
	.DB  0x2D,0x2D,0x0,0x2D,0x2D,0x2D,0x2D,0x2D
	.DB  0x2D,0x2D,0x2D,0x2D,0x2D,0x2D,0x2D,0x2D
	.DB  0x2D,0x2D,0x2D,0x2D,0x2D,0x2D,0x2D,0x2D
	.DB  0x2D,0x2D,0x2D,0x2D,0x2D,0x2D,0x2D,0x2D
	.DB  0x2D,0x2B,0x2B,0x2B,0x2B,0x2D,0x2D,0x2D
	.DB  0x2D,0x2D,0x2D,0x0,0x2D,0x2D,0x2D,0x2D
	.DB  0x2D,0x2D,0x2D,0x2D,0x2B,0x2B,0x2D,0x2D
	.DB  0x2D,0x2D,0x2D,0x2D,0x2D,0x2D,0x2D,0x2D
	.DB  0x2D,0x2D,0x2D,0x2D,0x2D,0x2D,0x2D,0x2D
	.DB  0x2D,0x2D,0x2D,0x2D,0x2D,0x2D,0x2D,0x2D
	.DB  0x2D,0x2D,0x2D,0x2D,0x0,0x2D,0x2D,0x2D
	.DB  0x2D,0x2D,0x2B,0x2B,0x2D,0x2D,0x2D,0x2D
	.DB  0x2D,0x2D,0x2D,0x2D,0x2D,0x2D,0x2D,0x2D
	.DB  0x2D,0x2D,0x2D,0x2D,0x2D,0x2D,0x2D,0x2D
	.DB  0x2D,0x2D,0x2D,0x2D,0x2D,0x2D,0x2D,0x2D
	.DB  0x2D,0x2D,0x2D,0x2D,0x2D,0x0,0x2B,0x2B
	.DB  0x2B,0x2B,0x2D,0x2D,0x2D,0x2D,0x2D,0x2D
	.DB  0x2D,0x2D,0x2D,0x2D,0x2D,0x2D,0x2D,0x2D
	.DB  0x2D,0x2D,0x2D,0x2D,0x2D,0x2D,0x2D,0x2D
	.DB  0x2D,0x2D,0x2D,0x2D,0x2D,0x2D,0x2D,0x2D
	.DB  0x2D,0x2D,0x2D,0x2D,0x2D,0x2D,0x0,0x2D
	.DB  0x2D,0x2D,0x2D,0x2D,0x2D,0x2D,0x2D,0x2D
	.DB  0x2D,0x2D,0x2D,0x2D,0x2D,0x2D,0x2D,0x2D
	.DB  0x2D,0x2D,0x2D,0x2D,0x2D,0x2D,0x2D,0x2D
	.DB  0x2D,0x2D,0x2D,0x2D,0x2D,0x2D,0x2D,0x2D
	.DB  0x2D,0x2D,0x2D,0x2D,0x2D,0x2D,0x2D,0x0
	.DB  0x2D,0x2D,0x2D,0x2D,0x2D,0x2D,0x2D,0x2D
	.DB  0x2D,0x2D,0x2D,0x2D,0x2D,0x2D,0x2D,0x2D
	.DB  0x2D,0x2D,0x2D,0x2D,0x2D,0x2D,0x2D,0x2D
	.DB  0x2B,0x2B,0x2D,0x2D,0x2D,0x2D,0x2D,0x2D
	.DB  0x2D,0x2D,0x2D,0x2D,0x2D,0x2D,0x2D,0x2D
	.DB  0x0,0x2A,0x20,0x25,0x30,0x32,0x69,0x3A
	.DB  0x25,0x30,0x32,0x69,0x3A,0x25,0x30,0x32
	.DB  0x69,0x20,0x41,0x4D,0x20,0x2A,0x0,0x2A
	.DB  0x20,0x25,0x30,0x32,0x69,0x3A,0x25,0x30
	.DB  0x32,0x69,0x3A,0x25,0x30,0x32,0x69,0x20
	.DB  0x50,0x4D,0x20,0x2A,0x0,0x2A,0x20,0x25
	.DB  0x30,0x32,0x69,0x3A,0x25,0x30,0x32,0x69
	.DB  0x3A,0x25,0x30,0x32,0x69,0x20,0x20,0x20
	.DB  0x20,0x2A,0x0,0x25,0x30,0x34,0x69,0x2F
	.DB  0x25,0x30,0x32,0x69,0x2F,0x25,0x30,0x32
	.DB  0x69,0x0,0x20,0x20,0x20,0x20,0x20,0x20
	.DB  0x20,0x20,0x20,0x20,0x20,0x20,0x0,0x53
	.DB  0x65,0x74,0x74,0x69,0x6E,0x67,0x20,0x4D
	.DB  0x6F,0x64,0x65,0x0
_0x2060000:
	.DB  0x2D,0x4E,0x41,0x4E,0x0
_0x2100060:
	.DB  0x1
_0x2100000:
	.DB  0x2D,0x4E,0x41,0x4E,0x0,0x49,0x4E,0x46
	.DB  0x0

__GLOBAL_INI_TBL:
	.DW  0x01
	.DW  0x02
	.DW  __REG_BIT_VARS*2

	.DW  0x01
	.DW  _am_pm
	.DW  _0x3*2

	.DW  0x0A
	.DW  _0x33
	.DW  _0x0*2

	.DW  0x0A
	.DW  _0x33+10
	.DW  _0x0*2+10

	.DW  0x0A
	.DW  _0x33+20
	.DW  _0x0*2+20

	.DW  0x0A
	.DW  _0x33+30
	.DW  _0x0*2+30

	.DW  0x0A
	.DW  _0x33+40
	.DW  _0x0*2+40

	.DW  0x0A
	.DW  _0x33+50
	.DW  _0x0*2+50

	.DW  0x0A
	.DW  _0x33+60
	.DW  _0x0*2+60

	.DW  0x0E
	.DW  _miladi_day
	.DW  _0x34*2

	.DW  0x0A
	.DW  _0x35
	.DW  _0x0*2+70

	.DW  0x0A
	.DW  _0x35+10
	.DW  _0x0*2+80

	.DW  0x0A
	.DW  _0x35+20
	.DW  _0x0*2+90

	.DW  0x0A
	.DW  _0x35+30
	.DW  _0x0*2+100

	.DW  0x0A
	.DW  _0x35+40
	.DW  _0x0*2+110

	.DW  0x0A
	.DW  _0x35+50
	.DW  _0x0*2+120

	.DW  0x0A
	.DW  _0x35+60
	.DW  _0x0*2+130

	.DW  0x0A
	.DW  _0x35+70
	.DW  _0x0*2+140

	.DW  0x0A
	.DW  _0x35+80
	.DW  _0x0*2+150

	.DW  0x0A
	.DW  _0x35+90
	.DW  _0x0*2+160

	.DW  0x0A
	.DW  _0x35+100
	.DW  _0x0*2+170

	.DW  0x0A
	.DW  _0x35+110
	.DW  _0x0*2+180

	.DW  0x18
	.DW  _miladi_month
	.DW  _0x36*2

	.DW  0x29
	.DW  _0x16C
	.DW  _0x0*2+190

	.DW  0x02
	.DW  _0x16C+41
	.DW  _0x0*2+8

	.DW  0x29
	.DW  _0x16C+43
	.DW  _0x0*2+231

	.DW  0x29
	.DW  _0x16C+84
	.DW  _0x0*2+272

	.DW  0x29
	.DW  _0x16C+125
	.DW  _0x0*2+313

	.DW  0x29
	.DW  _0x16C+166
	.DW  _0x0*2+354

	.DW  0x29
	.DW  _0x16C+207
	.DW  _0x0*2+395

	.DW  0x29
	.DW  _0x16C+248
	.DW  _0x0*2+436

	.DW  0x29
	.DW  _0x16C+289
	.DW  _0x0*2+477

	.DW  0x29
	.DW  _0x16C+330
	.DW  _0x0*2+518

	.DW  0x29
	.DW  _0x16C+371
	.DW  _0x0*2+559

	.DW  0x02
	.DW  _0x16C+412
	.DW  _0x0*2+352

	.DW  0x02
	.DW  _0x16C+414
	.DW  _0x0*2+352

	.DW  0x02
	.DW  _0x16C+416
	.DW  _0x0*2+8

	.DW  0x29
	.DW  _0x16C+418
	.DW  _0x0*2+190

	.DW  0x02
	.DW  _0x16C+459
	.DW  _0x0*2+8

	.DW  0x29
	.DW  _0x16C+461
	.DW  _0x0*2+231

	.DW  0x29
	.DW  _0x16C+502
	.DW  _0x0*2+272

	.DW  0x29
	.DW  _0x16C+543
	.DW  _0x0*2+600

	.DW  0x29
	.DW  _0x16C+584
	.DW  _0x0*2+313

	.DW  0x29
	.DW  _0x16C+625
	.DW  _0x0*2+354

	.DW  0x29
	.DW  _0x16C+666
	.DW  _0x0*2+395

	.DW  0x29
	.DW  _0x16C+707
	.DW  _0x0*2+436

	.DW  0x29
	.DW  _0x16C+748
	.DW  _0x0*2+477

	.DW  0x29
	.DW  _0x16C+789
	.DW  _0x0*2+518

	.DW  0x29
	.DW  _0x16C+830
	.DW  _0x0*2+559

	.DW  0x02
	.DW  _0x16C+871
	.DW  _0x0*2+352

	.DW  0x02
	.DW  _0x16C+873
	.DW  _0x0*2+352

	.DW  0x02
	.DW  _0x16C+875
	.DW  _0x0*2+8

	.DW  0x29
	.DW  _0x190
	.DW  _0x0*2+559

	.DW  0x0D
	.DW  _0x209
	.DW  _0x0*2+722

	.DW  0x02
	.DW  _0x209+13
	.DW  _0x0*2+8

	.DW  0x02
	.DW  _0x209+15
	.DW  _0x0*2+8

	.DW  0x0D
	.DW  _0x209+17
	.DW  _0x0*2+735

	.DW  0x29
	.DW  _0x211
	.DW  _0x0*2+559

	.DW  0x01
	.DW  __seed_G108
	.DW  _0x2100060*2

_0xFFFFFFFF:
	.DW  0

#define __GLOBAL_INI_TBL_PRESENT 1

__RESET:
	CLI
	CLR  R30
	OUT  EECR,R30

;INTERRUPT VECTORS ARE PLACED
;AT THE START OF FLASH
	LDI  R31,1
	OUT  GICR,R31
	OUT  GICR,R30
	OUT  MCUCR,R30

;CLEAR R2-R14
	LDI  R24,(14-2)+1
	LDI  R26,2
	CLR  R27
__CLEAR_REG:
	ST   X+,R30
	DEC  R24
	BRNE __CLEAR_REG

;CLEAR SRAM
	LDI  R24,LOW(__CLEAR_SRAM_SIZE)
	LDI  R25,HIGH(__CLEAR_SRAM_SIZE)
	LDI  R26,__SRAM_START
__CLEAR_SRAM:
	ST   X+,R30
	SBIW R24,1
	BRNE __CLEAR_SRAM

;GLOBAL VARIABLES INITIALIZATION
	LDI  R30,LOW(__GLOBAL_INI_TBL*2)
	LDI  R31,HIGH(__GLOBAL_INI_TBL*2)
__GLOBAL_INI_NEXT:
	LPM  R24,Z+
	LPM  R25,Z+
	SBIW R24,0
	BREQ __GLOBAL_INI_END
	LPM  R26,Z+
	LPM  R27,Z+
	LPM  R0,Z+
	LPM  R1,Z+
	MOVW R22,R30
	MOVW R30,R0
__GLOBAL_INI_LOOP:
	LPM  R0,Z+
	ST   X+,R0
	SBIW R24,1
	BRNE __GLOBAL_INI_LOOP
	MOVW R30,R22
	RJMP __GLOBAL_INI_NEXT
__GLOBAL_INI_END:

;HARDWARE STACK POINTER INITIALIZATION
	LDI  R30,LOW(__SRAM_END-__HEAP_SIZE)
	OUT  SPL,R30
	LDI  R30,HIGH(__SRAM_END-__HEAP_SIZE)
	OUT  SPH,R30

;DATA STACK POINTER INITIALIZATION
	LDI  R28,LOW(__SRAM_START+__DSTACK_SIZE)
	LDI  R29,HIGH(__SRAM_START+__DSTACK_SIZE)

	JMP  _main

	.ESEG
	.ORG 0

	.DSEG
	.ORG 0x260

	.CSEG
;/*******************************************************
;This program was created by the
;CodeWizardAVR V3.12 Advanced
;Automatic Program Generator
; Copyright 1998-2014 Pavel Haiduc, HP InfoTech s.r.l.
;http://www.hpinfotech.com
;
;Project : Digital_Clock
;Version : 1.0.0
;Date    : 5/14/2016
;Author  : Taleb Zarhesh
;Company :
;Comments:
;
;
;Chip type               : ATmega32
;Program type            : Application
;AVR Core Clock frequency: 8.000000 MHz
;Memory model            : Small
;External RAM size       : 0
;Data Stack size         : 512
;*******************************************************/
;
;#include <mega32.h>
	#ifndef __SLEEP_DEFINED__
	#define __SLEEP_DEFINED__
	.EQU __se_bit=0x80
	.EQU __sm_mask=0x70
	.EQU __sm_powerdown=0x20
	.EQU __sm_powersave=0x30
	.EQU __sm_standby=0x60
	.EQU __sm_ext_standby=0x70
	.EQU __sm_adc_noise_red=0x10
	.SET power_ctrl_reg=mcucr
	#endif
;#include <glcd.h>
;#include <font5x7.h>
;////////////////////////////////////
;#include <stdio.h>
;#include "includes/clock_0.c"
;/****************************************************************************
;Image data created by the LCD Vision V1.05 font & image editor/converter
;(C) Copyright 2011-2013 Pavel Haiduc, HP InfoTech s.r.l.
;http://www.hpinfotech.com
;
;Graphic LCD controller: T6963C 240x128 CG Font 8x8 (FS=0)
;Image width: 110 pixels
;Image height: 110 pixels
;Color depth: 1 bits/pixel
;Imported image file name: 0.bmp
;
;Exported monochrome image data size:
;1544 bytes for displays organized as horizontal rows of bytes
;1544 bytes for displays organized as rows of vertical bytes.
;****************************************************************************/
;
;flash unsigned char clock_0[]=
;{
;/* Image width: 110 pixels */
;0x6E, 0x00,
;/* Image height: 110 pixels */
;0x6E, 0x00,
;#ifndef _GLCD_DATA_BYTEY_
;/* Image data for monochrome displays organized
;   as horizontal rows of bytes */
;0x00, 0x00, 0x00, 0x00, 0x00, 0xE0, 0xFF, 0xFF,
;0x01, 0x00, 0x00, 0x00, 0x00, 0x00, 0x00, 0x00,
;0x00, 0x00, 0x00, 0xFF, 0xFF, 0xFF, 0x1F, 0x00,
;0x00, 0x00, 0x00, 0x00, 0x00, 0x00, 0x00, 0x00,
;0xE0, 0xFF, 0x01, 0xE0, 0xFF, 0x01, 0x00, 0x00,
;0x00, 0x00, 0x00, 0x00, 0x00, 0x00, 0xFC, 0x07,
;0x00, 0x00, 0xF8, 0x07, 0x00, 0x00, 0x00, 0x00,
;0x00, 0x00, 0x00, 0x00, 0x7F, 0x00, 0x0C, 0x1E,
;0x80, 0x3F, 0x00, 0x00, 0x00, 0x00, 0x00, 0x00,
;0x00, 0xC0, 0x0F, 0x00, 0x0C, 0x3F, 0x00, 0xFE,
;0x00, 0x00, 0x00, 0x00, 0x00, 0x00, 0x00, 0xF0,
;0x03, 0x80, 0x8F, 0x73, 0x00, 0xF0, 0x03, 0x00,
;0x00, 0x00, 0x00, 0x00, 0x00, 0xFC, 0x00, 0x80,
;0x8F, 0x73, 0x00, 0xC0, 0x0F, 0x00, 0x00, 0x00,
;0x00, 0x00, 0x00, 0x3F, 0x00, 0x00, 0x8C, 0x73,
;0x00, 0x00, 0x1F, 0x00, 0x00, 0x00, 0x00, 0x00,
;0x80, 0x0F, 0x00, 0x00, 0x0C, 0x70, 0x00, 0x00,
;0x7C, 0x00, 0x00, 0x00, 0x00, 0x00, 0xC0, 0x03,
;0x00, 0x00, 0x0C, 0x3C, 0x00, 0x00, 0xF8, 0x00,
;0x00, 0x00, 0x00, 0x00, 0xF0, 0x01, 0x00, 0x00,
;0x0C, 0x1E, 0x00, 0x00, 0xE0, 0x01, 0x00, 0x00,
;0x00, 0x00, 0xF8, 0x00, 0x00, 0x00, 0x0C, 0x0F,
;0x00, 0x00, 0xC0, 0x07, 0x00, 0x00, 0x00, 0x00,
;0x3C, 0x00, 0x00, 0x00, 0x0C, 0x07, 0x00, 0x00,
;0x00, 0x0F, 0x00, 0x00, 0x00, 0x00, 0x1E, 0x06,
;0x0E, 0x00, 0x8C, 0x7F, 0x00, 0x00, 0x06, 0x1E,
;0x00, 0x00, 0x00, 0x00, 0x8F, 0x07, 0x0F, 0x00,
;0x8C, 0x7F, 0x00, 0x80, 0x07, 0x3C, 0x00, 0x00,
;0x00, 0x80, 0xC7, 0x87, 0x0F, 0x00, 0x00, 0x00,
;0x00, 0xC0, 0x07, 0x78, 0x00, 0x00, 0x00, 0xC0,
;0x03, 0x06, 0x0E, 0x00, 0x00, 0x00, 0x00, 0x00,
;0x06, 0xF0, 0x00, 0x00, 0x00, 0xE0, 0x01, 0x06,
;0x0E, 0x00, 0x00, 0x00, 0x00, 0x00, 0x06, 0xE0,
;0x01, 0x00, 0x00, 0xF0, 0x00, 0x06, 0x0E, 0x00,
;0x00, 0x00, 0x00, 0x00, 0x06, 0xC0, 0x03, 0x00,
;0x00, 0x78, 0x00, 0x06, 0x0E, 0x00, 0x00, 0x00,
;0x00, 0x00, 0x06, 0x80, 0x07, 0x00, 0x00, 0x38,
;0x00, 0x06, 0x0E, 0x00, 0x00, 0x00, 0x00, 0x00,
;0x06, 0x00, 0x07, 0x00, 0x00, 0x1C, 0x00, 0x06,
;0x0E, 0x00, 0x00, 0x00, 0x00, 0x00, 0x06, 0x00,
;0x0E, 0x00, 0x00, 0x0E, 0x00, 0x06, 0x0E, 0x00,
;0x00, 0x00, 0x00, 0x00, 0x06, 0x00, 0x1E, 0x00,
;0x00, 0x0F, 0x00, 0x06, 0x0E, 0x00, 0x00, 0x00,
;0x00, 0x00, 0x06, 0x00, 0x1C, 0x00, 0x00, 0x07,
;0x00, 0x06, 0x06, 0x00, 0x00, 0x00, 0x00, 0x00,
;0x06, 0x00, 0x38, 0x00, 0x80, 0x03, 0x00, 0x00,
;0x00, 0x00, 0x00, 0x00, 0x00, 0x00, 0x00, 0x00,
;0x78, 0x00, 0x80, 0x03, 0x00, 0x00, 0x00, 0x00,
;0x00, 0x00, 0x00, 0x00, 0x00, 0x00, 0x70, 0x00,
;0xC0, 0x01, 0x00, 0x00, 0x00, 0x00, 0x00, 0x00,
;0x00, 0x00, 0x00, 0x00, 0xE0, 0x00, 0xE0, 0x18,
;0x38, 0x00, 0x00, 0x00, 0x00, 0x00, 0x00, 0x00,
;0x00, 0xE0, 0xE7, 0x00, 0xE0, 0x18, 0x7C, 0x00,
;0x00, 0x00, 0x00, 0x00, 0x00, 0x00, 0x00, 0xE0,
;0xCF, 0x01, 0x70, 0x1E, 0xFE, 0x00, 0x00, 0x00,
;0x00, 0x00, 0x00, 0x00, 0x00, 0x60, 0xCE, 0x01,
;0x70, 0x1F, 0xE6, 0x00, 0x00, 0x00, 0x00, 0x00,
;0x00, 0x00, 0x00, 0x60, 0x8E, 0x03, 0x30, 0x18,
;0xC7, 0x00, 0x00, 0x00, 0x00, 0x00, 0x00, 0x00,
;0x00, 0x00, 0x8E, 0x03, 0x38, 0x18, 0xC7, 0x00,
;0x00, 0x00, 0x00, 0x00, 0x00, 0x00, 0x00, 0x00,
;0x07, 0x07, 0x38, 0x18, 0xC7, 0x00, 0x00, 0x00,
;0x00, 0x00, 0x00, 0x00, 0x00, 0x80, 0x07, 0x07,
;0x1C, 0x18, 0xC7, 0x00, 0x00, 0x00, 0x00, 0x00,
;0x00, 0x00, 0x00, 0xC0, 0x01, 0x06, 0x1C, 0x18,
;0xC7, 0x00, 0x00, 0x00, 0x00, 0x00, 0x00, 0x00,
;0x00, 0xE0, 0x00, 0x0E, 0x0C, 0x18, 0xC7, 0x00,
;0x00, 0x00, 0x00, 0x00, 0x00, 0x00, 0x00, 0x60,
;0x00, 0x0E, 0x0E, 0x18, 0xEE, 0x00, 0x00, 0x00,
;0x00, 0x00, 0x00, 0x00, 0x00, 0xF0, 0x0F, 0x0C,
;0x0E, 0x18, 0x7E, 0x00, 0x00, 0x00, 0x00, 0x00,
;0x00, 0x00, 0x00, 0xF0, 0x0F, 0x1C, 0x0E, 0x18,
;0x3C, 0x00, 0x00, 0x00, 0x00, 0x00, 0x00, 0x00,
;0x00, 0x00, 0x00, 0x1C, 0x06, 0x00, 0x00, 0x00,
;0x00, 0x00, 0x00, 0x00, 0x00, 0x00, 0x00, 0x00,
;0x00, 0x18, 0x07, 0x00, 0x00, 0x00, 0x00, 0x00,
;0x00, 0x00, 0x00, 0x00, 0x00, 0x00, 0x00, 0x18,
;0x07, 0x00, 0x00, 0x00, 0x00, 0x00, 0x00, 0x00,
;0x00, 0x00, 0x00, 0x00, 0x00, 0x18, 0x07, 0x00,
;0x00, 0x00, 0x00, 0x00, 0x00, 0x00, 0x00, 0x00,
;0x00, 0x00, 0x00, 0x38, 0x03, 0x00, 0x00, 0x00,
;0x00, 0x00, 0x00, 0x00, 0x00, 0x00, 0x00, 0x00,
;0x00, 0x38, 0x03, 0x00, 0x00, 0x00, 0x00, 0x00,
;0x00, 0x00, 0x00, 0x00, 0x00, 0x00, 0x00, 0x38,
;0x83, 0x03, 0x00, 0x00, 0x00, 0x00, 0x00, 0x00,
;0x00, 0x00, 0x00, 0x00, 0xF0, 0x30, 0xE3, 0x0F,
;0x00, 0x00, 0x00, 0x00, 0x00, 0x00, 0x00, 0x00,
;0x00, 0x00, 0xF8, 0x31, 0xE3, 0x0E, 0x00, 0x00,
;0x00, 0x00, 0xE0, 0x01, 0x00, 0x00, 0x00, 0x00,
;0xDC, 0x31, 0x63, 0x0C, 0x00, 0x00, 0x00, 0x00,
;0xF0, 0x03, 0x00, 0x00, 0x00, 0x00, 0x9C, 0x31,
;0x63, 0x1C, 0x00, 0x00, 0x00, 0x00, 0xF8, 0x07,
;0x00, 0x00, 0x00, 0x00, 0x80, 0x31, 0x63, 0x1C,
;0x00, 0x00, 0x00, 0x00, 0xF8, 0x07, 0x00, 0x00,
;0x00, 0x00, 0xE0, 0x31, 0xE3, 0x1F, 0x00, 0x00,
;0x00, 0x00, 0xF8, 0x07, 0x00, 0x00, 0x00, 0x00,
;0xE0, 0x31, 0xE3, 0x1F, 0x00, 0x00, 0x00, 0x00,
;0xF8, 0x07, 0x00, 0x00, 0x00, 0x00, 0x80, 0x33,
;0x03, 0x0D, 0x00, 0x00, 0x00, 0x00, 0xF0, 0x03,
;0x00, 0x00, 0x00, 0x00, 0x8C, 0x33, 0x63, 0x0C,
;0x00, 0x00, 0x00, 0x00, 0xE0, 0x01, 0x00, 0x00,
;0x00, 0x00, 0x8C, 0x33, 0xE3, 0x0E, 0x00, 0x00,
;0x00, 0x00, 0x00, 0x00, 0x00, 0x00, 0x00, 0x00,
;0xFC, 0x33, 0xE3, 0x07, 0x00, 0x00, 0x00, 0x00,
;0x00, 0x00, 0x00, 0x00, 0x00, 0x00, 0xF8, 0x31,
;0x83, 0x03, 0x00, 0x00, 0x00, 0x00, 0x00, 0x00,
;0x00, 0x00, 0x00, 0x00, 0x70, 0x30, 0x03, 0x00,
;0x00, 0x00, 0x00, 0x00, 0x00, 0x00, 0x00, 0x00,
;0x00, 0x00, 0x00, 0x30, 0x03, 0x00, 0x00, 0x00,
;0x00, 0x00, 0x00, 0x00, 0x00, 0x00, 0x00, 0x00,
;0x00, 0x30, 0x03, 0x00, 0x00, 0x00, 0x00, 0x00,
;0x00, 0x00, 0x00, 0x00, 0x00, 0x00, 0x00, 0x38,
;0x07, 0x00, 0x00, 0x00, 0x00, 0x00, 0x00, 0x00,
;0x00, 0x00, 0x00, 0x00, 0x00, 0x38, 0x07, 0x00,
;0x00, 0x00, 0x00, 0x00, 0x00, 0x00, 0x00, 0x00,
;0x00, 0x00, 0x00, 0x38, 0x07, 0x00, 0x00, 0x00,
;0x00, 0x00, 0x00, 0x00, 0x00, 0x00, 0x00, 0x00,
;0x00, 0x18, 0x06, 0x00, 0x00, 0x00, 0x00, 0x00,
;0x00, 0x00, 0x00, 0x00, 0x00, 0x00, 0x00, 0x18,
;0x06, 0x00, 0x00, 0x00, 0x00, 0x00, 0x00, 0x00,
;0x00, 0x00, 0x00, 0x00, 0x00, 0x1C, 0x0E, 0x00,
;0x00, 0x00, 0x00, 0x00, 0x00, 0x00, 0x00, 0x00,
;0x00, 0x00, 0x00, 0x1C, 0x0E, 0xF0, 0x01, 0x00,
;0x00, 0x00, 0x00, 0x00, 0x00, 0x00, 0x00, 0x00,
;0x07, 0x0C, 0x0C, 0xF8, 0x03, 0x00, 0x00, 0x00,
;0x00, 0x00, 0x00, 0x00, 0x00, 0x00, 0x07, 0x0E,
;0x1C, 0x98, 0x03, 0x00, 0x00, 0x00, 0x00, 0x00,
;0x00, 0x00, 0x00, 0x80, 0x07, 0x0E, 0x1C, 0x98,
;0x03, 0x00, 0x00, 0x00, 0x00, 0x00, 0x00, 0x00,
;0x00, 0xC0, 0x07, 0x06, 0x18, 0xF8, 0x03, 0x00,
;0x00, 0x00, 0x00, 0x00, 0x00, 0x00, 0x00, 0xC0,
;0x06, 0x07, 0x38, 0xF0, 0x01, 0x00, 0x00, 0x00,
;0x00, 0x00, 0x00, 0x00, 0x00, 0xE0, 0x06, 0x07,
;0x38, 0xB8, 0x03, 0x00, 0x00, 0x00, 0x00, 0x00,
;0x00, 0x00, 0x00, 0x70, 0x06, 0x03, 0x70, 0x18,
;0x03, 0x00, 0x00, 0x00, 0x00, 0x00, 0x00, 0x00,
;0x00, 0xF0, 0x8F, 0x03, 0x70, 0x18, 0x03, 0x00,
;0x00, 0x00, 0x00, 0x00, 0x00, 0x00, 0x00, 0xF0,
;0x8F, 0x03, 0xE0, 0x98, 0x03, 0x00, 0x00, 0x00,
;0x00, 0x00, 0x00, 0x00, 0x00, 0x00, 0xC6, 0x01,
;0xE0, 0xF8, 0x03, 0x00, 0x00, 0x00, 0x00, 0x00,
;0x00, 0x00, 0x00, 0x00, 0xE6, 0x01, 0xC0, 0xF1,
;0x01, 0x00, 0x00, 0x00, 0x00, 0x00, 0x00, 0x00,
;0x00, 0x00, 0xE6, 0x00, 0xC0, 0x01, 0x00, 0x00,
;0x00, 0x00, 0x00, 0x00, 0x00, 0x00, 0x00, 0x00,
;0x70, 0x00, 0x80, 0x03, 0x00, 0x00, 0x00, 0x00,
;0x00, 0x00, 0x00, 0x00, 0x00, 0x00, 0x70, 0x00,
;0x80, 0x07, 0x00, 0x00, 0x00, 0x00, 0x00, 0x00,
;0x00, 0x00, 0x00, 0x00, 0x38, 0x00, 0x00, 0x07,
;0x00, 0x00, 0x00, 0x00, 0x00, 0x00, 0x00, 0x00,
;0x00, 0x00, 0x3C, 0x00, 0x00, 0x0E, 0x00, 0x00,
;0x00, 0x00, 0x00, 0x00, 0x00, 0x00, 0x00, 0x00,
;0x1C, 0x00, 0x00, 0x1E, 0x00, 0xFC, 0x03, 0x00,
;0x00, 0x00, 0x00, 0x80, 0x1F, 0x00, 0x0E, 0x00,
;0x00, 0x3C, 0x00, 0xFC, 0x03, 0x00, 0x00, 0x00,
;0x00, 0x80, 0x1F, 0x00, 0x0F, 0x00, 0x00, 0x38,
;0x00, 0xC0, 0x01, 0x00, 0x00, 0x00, 0x00, 0xC0,
;0x01, 0x80, 0x07, 0x00, 0x00, 0x70, 0x00, 0xC0,
;0x00, 0x00, 0x00, 0x00, 0x00, 0xC0, 0x07, 0xC0,
;0x03, 0x00, 0x00, 0xE0, 0x00, 0xE0, 0x00, 0x00,
;0x00, 0x00, 0x00, 0xC0, 0x1F, 0xE0, 0x01, 0x00,
;0x00, 0xC0, 0x01, 0x60, 0x00, 0x00, 0x00, 0x00,
;0x00, 0xC0, 0x1D, 0xE0, 0x00, 0x00, 0x00, 0xC0,
;0x03, 0x70, 0x00, 0x00, 0x00, 0x00, 0x00, 0x00,
;0x18, 0x78, 0x00, 0x00, 0x00, 0x80, 0x07, 0x30,
;0x00, 0x00, 0xF0, 0x03, 0x00, 0x00, 0x18, 0x3C,
;0x00, 0x00, 0x00, 0x00, 0x0F, 0x38, 0x00, 0x00,
;0xF0, 0x03, 0x00, 0xC0, 0x18, 0x1E, 0x00, 0x00,
;0x00, 0x00, 0x3C, 0x38, 0x00, 0x00, 0x38, 0x07,
;0x00, 0xC0, 0x1D, 0x0F, 0x00, 0x00, 0x00, 0x00,
;0x78, 0x38, 0x00, 0x00, 0x38, 0x00, 0x00, 0xC0,
;0x9F, 0x07, 0x00, 0x00, 0x00, 0x00, 0xF0, 0x18,
;0x00, 0x00, 0xF8, 0x03, 0x00, 0x80, 0xEF, 0x03,
;0x00, 0x00, 0x00, 0x00, 0xE0, 0x03, 0x00, 0x00,
;0xF8, 0x03, 0x00, 0x00, 0xF0, 0x01, 0x00, 0x00,
;0x00, 0x00, 0xC0, 0x07, 0x00, 0x00, 0x38, 0x07,
;0x00, 0x00, 0x7C, 0x00, 0x00, 0x00, 0x00, 0x00,
;0x00, 0x1F, 0x00, 0x00, 0x38, 0x07, 0x00, 0x00,
;0x3E, 0x00, 0x00, 0x00, 0x00, 0x00, 0x00, 0x7E,
;0x00, 0x00, 0x38, 0x07, 0x00, 0x80, 0x0F, 0x00,
;0x00, 0x00, 0x00, 0x00, 0x00, 0xF8, 0x01, 0x00,
;0x38, 0x07, 0x00, 0xE0, 0x07, 0x00, 0x00, 0x00,
;0x00, 0x00, 0x00, 0xE0, 0x07, 0x00, 0xF0, 0x03,
;0x00, 0xFC, 0x01, 0x00, 0x00, 0x00, 0x00, 0x00,
;0x00, 0x80, 0x3F, 0x00, 0xF0, 0x01, 0x00, 0x7F,
;0x00, 0x00, 0x00, 0x00, 0x00, 0x00, 0x00, 0x00,
;0xFE, 0x01, 0x00, 0x00, 0xE0, 0x0F, 0x00, 0x00,
;0x00, 0x00, 0x00, 0x00, 0x00, 0x00, 0xF0, 0x3F,
;0x00, 0x00, 0xFF, 0x03, 0x00, 0x00, 0x00, 0x00,
;0x00, 0x00, 0x00, 0x00, 0x80, 0xFF, 0xFF, 0xFF,
;0x7F, 0x00, 0x00, 0x00, 0x00, 0x00, 0x00, 0x00,
;0x00, 0x00, 0x00, 0xF8, 0xFF, 0xFF, 0x07, 0x00,
;0x00, 0x00, 0x00, 0x00,
;#else
;/* Image data for monochrome displays organized
;   as rows of vertical bytes */
;0x00, 0x00, 0x00, 0x00, 0x00, 0x00, 0x00, 0x00,
;0x00, 0x00, 0x00, 0x00, 0x00, 0x00, 0x00, 0x00,
;0x00, 0x00, 0x00, 0x00, 0x00, 0x00, 0x00, 0x00,
;0x00, 0x00, 0x80, 0x80, 0xC0, 0xC0, 0xE0, 0xE0,
;0x70, 0x70, 0x38, 0x38, 0x18, 0x1C, 0x1C, 0x0C,
;0x0E, 0x0E, 0x0E, 0x06, 0x06, 0x07, 0x07, 0xC7,
;0xC7, 0xC3, 0xF3, 0xF3, 0x03, 0x03, 0x03, 0xC3,
;0xE3, 0xF3, 0x33, 0x33, 0xF3, 0xE7, 0xC7, 0x07,
;0x07, 0x06, 0x06, 0x0E, 0x0E, 0x0C, 0x0C, 0x1C,
;0x1C, 0x38, 0x38, 0x30, 0x70, 0x70, 0xE0, 0xE0,
;0xC0, 0xC0, 0x80, 0x80, 0x00, 0x00, 0x00, 0x00,
;0x00, 0x00, 0x00, 0x00, 0x00, 0x00, 0x00, 0x00,
;0x00, 0x00, 0x00, 0x00, 0x00, 0x00, 0x00, 0x00,
;0x00, 0x00, 0x00, 0x00, 0x00, 0x00, 0x00, 0x00,
;0x00, 0x00, 0x00, 0x00, 0x00, 0x00, 0x00, 0x00,
;0x00, 0x00, 0x00, 0x00, 0x00, 0x00, 0x80, 0xC0,
;0xE0, 0xF0, 0x78, 0x38, 0x1C, 0x9E, 0x8F, 0xC7,
;0xC3, 0x03, 0x01, 0x01, 0x00, 0x00, 0x80, 0xC0,
;0xC0, 0xC0, 0x00, 0x00, 0x00, 0x00, 0x00, 0x00,
;0x00, 0x00, 0x00, 0x00, 0x00, 0x00, 0x00, 0x00,
;0xFF, 0xFF, 0x00, 0x00, 0x00, 0xC1, 0xF1, 0xF9,
;0xFC, 0xDC, 0xCF, 0xC7, 0xC3, 0x00, 0x00, 0x00,
;0x00, 0x00, 0x00, 0x00, 0x00, 0x00, 0x00, 0x00,
;0x00, 0x00, 0x00, 0x00, 0x00, 0x80, 0x81, 0xC1,
;0xC3, 0x07, 0x07, 0x0E, 0x1E, 0x1C, 0x38, 0x70,
;0xF0, 0xE0, 0xC0, 0x80, 0x00, 0x00, 0x00, 0x00,
;0x00, 0x00, 0x00, 0x00, 0x00, 0x00, 0x00, 0x00,
;0x00, 0x00, 0x00, 0x00, 0x00, 0x00, 0x00, 0x00,
;0x00, 0x00, 0x00, 0x00, 0x00, 0x80, 0xC0, 0xF0,
;0x78, 0x3C, 0x1E, 0x0F, 0x07, 0x03, 0x01, 0x00,
;0x00, 0x00, 0x01, 0x01, 0x01, 0xFF, 0xFF, 0x00,
;0x00, 0x00, 0x00, 0x01, 0x01, 0xFF, 0xFF, 0xFF,
;0x00, 0x00, 0x00, 0x00, 0x00, 0x00, 0x00, 0x00,
;0x00, 0x00, 0x00, 0x00, 0x00, 0x00, 0x00, 0x00,
;0x00, 0x00, 0x00, 0x00, 0x00, 0x00, 0x00, 0x00,
;0x00, 0x00, 0x00, 0x00, 0x00, 0x00, 0x00, 0x00,
;0x00, 0x00, 0x00, 0x00, 0x00, 0x00, 0x00, 0x00,
;0x00, 0x00, 0x01, 0x01, 0x01, 0xFF, 0xFF, 0x00,
;0x00, 0x00, 0x00, 0x00, 0x00, 0x00, 0x00, 0x01,
;0x03, 0x07, 0x0F, 0x1E, 0x3C, 0xF8, 0xF0, 0xC0,
;0x80, 0x00, 0x00, 0x00, 0x00, 0x00, 0x00, 0x00,
;0x00, 0x00, 0x00, 0x00, 0x00, 0x00, 0x80, 0xE0,
;0xF0, 0x7C, 0x1F, 0x8F, 0x83, 0xE1, 0xE0, 0x00,
;0x00, 0x00, 0x00, 0x80, 0xC0, 0xE0, 0xE0, 0xE0,
;0xC0, 0x80, 0x00, 0x03, 0x03, 0x00, 0x00, 0x00,
;0x00, 0x00, 0x00, 0x03, 0x03, 0x01, 0x00, 0x00,
;0x00, 0x00, 0x00, 0x00, 0x00, 0x00, 0x00, 0x00,
;0x00, 0x00, 0x00, 0x00, 0x00, 0x00, 0x00, 0x00,
;0x00, 0x00, 0x00, 0x00, 0x00, 0x00, 0x00, 0x00,
;0x00, 0x00, 0x00, 0x00, 0x00, 0x00, 0x00, 0x00,
;0x00, 0x00, 0x00, 0x00, 0x00, 0x00, 0x00, 0x00,
;0x00, 0x00, 0x00, 0x03, 0x03, 0x00, 0x00, 0x00,
;0x00, 0x00, 0x00, 0x00, 0x00, 0x00, 0x00, 0xE0,
;0xE0, 0x60, 0x60, 0xE0, 0xE1, 0xC7, 0x0F, 0x3E,
;0xFC, 0xF0, 0xC0, 0x00, 0x00, 0x00, 0x00, 0x00,
;0x00, 0x80, 0xF0, 0xFC, 0x3F, 0x0F, 0x01, 0x00,
;0x01, 0x01, 0x01, 0xFF, 0xFF, 0x00, 0x00, 0x00,
;0x7E, 0xFF, 0xFF, 0x80, 0x00, 0x81, 0xFF, 0xFF,
;0x00, 0x00, 0x00, 0x00, 0x00, 0x00, 0x00, 0x00,
;0x00, 0x00, 0x00, 0x00, 0x00, 0x00, 0x00, 0x00,
;0x00, 0x00, 0x00, 0x00, 0x00, 0x00, 0x00, 0x00,
;0x00, 0x00, 0x00, 0x00, 0x00, 0x00, 0x00, 0x00,
;0x00, 0x00, 0x00, 0x00, 0x00, 0x00, 0x00, 0x00,
;0x00, 0x00, 0x00, 0x00, 0x00, 0x00, 0x00, 0x00,
;0x00, 0x00, 0x00, 0x00, 0x00, 0x00, 0x00, 0x00,
;0x00, 0x00, 0x00, 0x00, 0x00, 0x00, 0x00, 0x00,
;0x00, 0x00, 0x00, 0x00, 0x80, 0xE1, 0xF1, 0xB8,
;0x9C, 0x8F, 0x8F, 0x83, 0x00, 0x00, 0x00, 0x03,
;0x0F, 0x7F, 0xFC, 0xE0, 0x00, 0x00, 0xF8, 0xFF,
;0x3F, 0x03, 0x00, 0x00, 0x00, 0x00, 0x00, 0x00,
;0x00, 0x03, 0x03, 0x00, 0x00, 0x00, 0x00, 0x01,
;0x03, 0x03, 0x03, 0x03, 0x01, 0x00, 0x00, 0x00,
;0x00, 0x00, 0x00, 0x00, 0x00, 0x00, 0x00, 0x00,
;0x00, 0x00, 0x00, 0x00, 0x00, 0x00, 0x00, 0x00,
;0x00, 0x00, 0x00, 0x00, 0x00, 0x00, 0x00, 0x00,
;0x00, 0x00, 0x00, 0x00, 0x00, 0x00, 0x00, 0x00,
;0x00, 0x00, 0x00, 0x00, 0x00, 0x00, 0x00, 0x00,
;0x00, 0x00, 0x00, 0x00, 0x00, 0x00, 0x00, 0x00,
;0x00, 0x00, 0x00, 0x00, 0x00, 0x00, 0x00, 0x00,
;0x00, 0x00, 0x00, 0x00, 0x00, 0x00, 0x00, 0x00,
;0x00, 0x00, 0x01, 0x01, 0x01, 0x01, 0x01, 0x01,
;0x01, 0x01, 0x00, 0x00, 0x00, 0x00, 0x00, 0x00,
;0x03, 0xFF, 0xFF, 0xE0, 0xFF, 0xFF, 0x00, 0x00,
;0x00, 0xFE, 0xFE, 0xC7, 0xC3, 0xC7, 0xFE, 0xFE,
;0xF0, 0x00, 0x00, 0x00, 0x00, 0x00, 0x00, 0x00,
;0x00, 0x00, 0x00, 0x00, 0x00, 0x00, 0x00, 0x00,
;0x00, 0x00, 0x00, 0x00, 0x00, 0x00, 0x00, 0x00,
;0x00, 0x00, 0x00, 0x00, 0x00, 0x00, 0x00, 0x00,
;0x00, 0x00, 0x00, 0x00, 0x00, 0x00, 0x00, 0xF0,
;0xF8, 0xFC, 0xFC, 0xFC, 0xFC, 0xF8, 0xF0, 0x00,
;0x00, 0x00, 0x00, 0x00, 0x00, 0x00, 0x00, 0x00,
;0x00, 0x00, 0x00, 0x00, 0x00, 0x00, 0x00, 0x00,
;0x00, 0x00, 0x00, 0x00, 0x00, 0x00, 0x00, 0x00,
;0x00, 0x00, 0x00, 0x00, 0x00, 0x00, 0x00, 0x00,
;0x00, 0x00, 0x00, 0x00, 0x00, 0x00, 0x0C, 0x0E,
;0x0F, 0x63, 0x67, 0xFF, 0xFE, 0x80, 0x00, 0x00,
;0xFF, 0xFF, 0xFF, 0xFF, 0x00, 0x00, 0x00, 0x0E,
;0x0E, 0x1C, 0x19, 0x1C, 0x0F, 0x07, 0x00, 0x00,
;0x00, 0x00, 0x00, 0x00, 0x00, 0x00, 0x00, 0x00,
;0x00, 0x00, 0x00, 0x00, 0x00, 0x00, 0x00, 0x00,
;0x00, 0x00, 0x00, 0x00, 0x00, 0x00, 0x00, 0x00,
;0x00, 0x00, 0x00, 0x00, 0x00, 0x00, 0x00, 0x00,
;0x00, 0x00, 0x00, 0x00, 0x00, 0x00, 0x01, 0x03,
;0x03, 0x03, 0x03, 0x01, 0x00, 0x00, 0x00, 0x00,
;0x00, 0x00, 0x00, 0x00, 0x00, 0x00, 0x00, 0x00,
;0x00, 0x00, 0x00, 0x00, 0x00, 0x00, 0x00, 0x00,
;0x00, 0x00, 0x00, 0x00, 0x00, 0x00, 0x00, 0x00,
;0x00, 0x00, 0x00, 0x00, 0x00, 0x00, 0x00, 0x00,
;0x00, 0x00, 0x00, 0x00, 0x07, 0x0F, 0x1C, 0x1C,
;0x1C, 0x0F, 0x0F, 0x07, 0x00, 0x80, 0xFF, 0xFF,
;0x07, 0x7F, 0xFF, 0xE0, 0x00, 0x00, 0x00, 0x00,
;0x00, 0x00, 0x00, 0x80, 0xC0, 0xC0, 0xC0, 0xC0,
;0xC0, 0x80, 0x00, 0x00, 0x00, 0x00, 0x00, 0x00,
;0x00, 0x00, 0x00, 0x00, 0x00, 0x00, 0x00, 0x00,
;0x00, 0x00, 0x00, 0x00, 0x00, 0x00, 0x00, 0x00,
;0x00, 0x00, 0x00, 0x00, 0x00, 0x00, 0x00, 0x00,
;0x00, 0x00, 0x00, 0x00, 0x00, 0x00, 0x00, 0x00,
;0x00, 0x00, 0x00, 0x00, 0x00, 0x00, 0x00, 0x00,
;0x00, 0x00, 0x00, 0x00, 0x00, 0x00, 0x00, 0x00,
;0x00, 0x00, 0x00, 0x00, 0x00, 0x00, 0x00, 0x00,
;0x00, 0x00, 0x00, 0x00, 0x00, 0x00, 0x00, 0x00,
;0x00, 0x00, 0x00, 0x00, 0x00, 0x00, 0x00, 0x00,
;0xC0, 0xC0, 0xC0, 0x00, 0x00, 0x00, 0x00, 0x00,
;0x00, 0x80, 0xF0, 0xFF, 0x3F, 0x03, 0x00, 0x00,
;0x03, 0x1F, 0x7F, 0xF8, 0xE0, 0x80, 0x00, 0x00,
;0x00, 0xF7, 0xFF, 0x1C, 0x0C, 0x9F, 0xFF, 0xF7,
;0x00, 0x00, 0x00, 0x00, 0x00, 0x00, 0x00, 0x00,
;0x00, 0x00, 0x00, 0x00, 0x00, 0x00, 0x00, 0x00,
;0x00, 0x00, 0x00, 0x00, 0x00, 0x00, 0x00, 0x00,
;0x00, 0x00, 0x00, 0x00, 0x00, 0x00, 0x00, 0x00,
;0x00, 0x00, 0x00, 0x00, 0x00, 0x00, 0x00, 0x00,
;0x00, 0x00, 0x00, 0x00, 0x00, 0x00, 0x00, 0x00,
;0x00, 0x00, 0x00, 0x00, 0x00, 0x00, 0x00, 0x00,
;0x00, 0x00, 0x00, 0x00, 0x00, 0x00, 0x00, 0x00,
;0x00, 0x00, 0x00, 0x00, 0x00, 0x00, 0x00, 0x00,
;0x00, 0x00, 0x70, 0x78, 0x7E, 0x6F, 0x63, 0xFF,
;0xFF, 0x60, 0x00, 0x00, 0x80, 0xE0, 0xFC, 0x7F,
;0x0F, 0x01, 0x00, 0x00, 0x00, 0x00, 0x00, 0x00,
;0x00, 0x01, 0x07, 0x1F, 0x3E, 0xF8, 0xF0, 0xC1,
;0x83, 0x03, 0x03, 0x03, 0x03, 0x01, 0x00, 0x00,
;0x00, 0x00, 0x00, 0x00, 0x00, 0x00, 0x80, 0x80,
;0x80, 0x80, 0x80, 0x80, 0x80, 0x80, 0x00, 0x00,
;0x00, 0x00, 0x00, 0x00, 0x00, 0x00, 0x00, 0x00,
;0x00, 0x00, 0x00, 0x00, 0x00, 0x00, 0x00, 0x00,
;0x00, 0x00, 0x00, 0x00, 0x00, 0x00, 0x00, 0x00,
;0x00, 0x00, 0x00, 0x00, 0x00, 0x00, 0x00, 0x00,
;0x00, 0x00, 0x00, 0x00, 0x00, 0x00, 0x00, 0x00,
;0x00, 0x00, 0x00, 0x80, 0x80, 0x80, 0x80, 0x80,
;0x80, 0x00, 0x00, 0x00, 0x00, 0x00, 0x00, 0x00,
;0x00, 0x00, 0x00, 0x00, 0x00, 0x83, 0xE3, 0xF0,
;0x7C, 0x3F, 0x0F, 0x03, 0x01, 0x00, 0x00, 0x00,
;0x00, 0x00, 0x00, 0x00, 0x00, 0x00, 0x00, 0x00,
;0x00, 0x00, 0x00, 0x00, 0x01, 0x03, 0x07, 0x0F,
;0x3C, 0x78, 0xF0, 0xE0, 0xC0, 0x80, 0x00, 0x00,
;0x00, 0x00, 0x00, 0x00, 0x01, 0x81, 0xE1, 0xF9,
;0x3F, 0x0F, 0x03, 0x01, 0x00, 0x00, 0x00, 0x00,
;0x00, 0x00, 0x00, 0x00, 0x00, 0x00, 0x00, 0x00,
;0x00, 0x00, 0x00, 0x00, 0x00, 0x00, 0xC0, 0xC0,
;0xC0, 0xC0, 0xC0, 0xC0, 0x00, 0x00, 0x00, 0x00,
;0x00, 0x00, 0x00, 0x00, 0x00, 0x00, 0x00, 0x00,
;0x00, 0x00, 0x00, 0x00, 0x00, 0x00, 0x00, 0x00,
;0x9E, 0x9F, 0x1F, 0x0D, 0x1D, 0xF9, 0xF9, 0x00,
;0x00, 0x00, 0x00, 0x80, 0xC0, 0xE0, 0xE0, 0x78,
;0x3C, 0x1E, 0x0F, 0x07, 0x03, 0x01, 0x00, 0x00,
;0x00, 0x00, 0x00, 0x00, 0x00, 0x00, 0x00, 0x00,
;0x00, 0x00, 0x00, 0x00, 0x00, 0x00, 0x00, 0x00,
;0x00, 0x00, 0x00, 0x00, 0x00, 0x00, 0x00, 0x00,
;0x00, 0x00, 0x01, 0x03, 0x07, 0x0F, 0x1E, 0x1C,
;0x38, 0x78, 0x70, 0xE7, 0xE7, 0xC3, 0xC0, 0x80,
;0x80, 0x00, 0x00, 0x00, 0x00, 0x00, 0x00, 0x00,
;0x00, 0x00, 0x00, 0x00, 0x00, 0x00, 0x00, 0x00,
;0x00, 0x00, 0x00, 0xFF, 0xFF, 0xFF, 0x0C, 0x0C,
;0xFD, 0xFD, 0xF1, 0x00, 0x00, 0x00, 0x00, 0x00,
;0x00, 0x00, 0x00, 0x00, 0x00, 0x00, 0x00, 0x00,
;0x00, 0x00, 0x00, 0x00, 0x00, 0x80, 0x83, 0xC7,
;0xC7, 0xE6, 0xF7, 0x77, 0x3B, 0x3C, 0x1C, 0x0E,
;0x0F, 0x07, 0x03, 0x01, 0x00, 0x00, 0x00, 0x00,
;0x00, 0x00, 0x00, 0x00, 0x00, 0x00, 0x00, 0x00,
;0x00, 0x00, 0x00, 0x00, 0x00, 0x00, 0x00, 0x00,
;0x00, 0x00, 0x00, 0x00, 0x00, 0x00, 0x00, 0x00,
;0x00, 0x00, 0x00, 0x00, 0x00, 0x00, 0x00, 0x00,
;0x00, 0x00, 0x00, 0x00, 0x00, 0x00, 0x00, 0x00,
;0x00, 0x00, 0x00, 0x01, 0x01, 0x03, 0x03, 0x07,
;0x07, 0x06, 0x0E, 0x0E, 0x0C, 0x1C, 0x1C, 0x18,
;0x18, 0x38, 0x38, 0x38, 0x30, 0x30, 0x30, 0x30,
;0x30, 0x30, 0x33, 0x33, 0x33, 0x33, 0x33, 0x31,
;0x30, 0x30, 0x30, 0x30, 0x30, 0x30, 0x38, 0x38,
;0x38, 0x18, 0x18, 0x1C, 0x1C, 0x0C, 0x0E, 0x0E,
;0x07, 0x07, 0x03, 0x03, 0x03, 0x01, 0x01, 0x00,
;0x00, 0x00, 0x00, 0x00, 0x00, 0x00, 0x00, 0x00,
;0x00, 0x00, 0x00, 0x00, 0x00, 0x00, 0x00, 0x00,
;0x00, 0x00, 0x00, 0x00, 0x00, 0x00, 0x00, 0x00,
;0x00, 0x00, 0x00, 0x00,
;#endif
;};
;
;#include "includes/eagle.c"
;/****************************************************************************
;Image data created by the LCD Vision V1.05 font & image editor/converter
;(C) Copyright 2011-2013 Pavel Haiduc, HP InfoTech s.r.l.
;http://www.hpinfotech.com
;
;Graphic LCD controller: T6963C 240x128 CG Font 8x8 (FS=0)
;Image width: 120 pixels
;Image height: 120 pixels
;Color depth: 1 bits/pixel
;Imported image file name: Eagle.bmp
;
;Exported monochrome image data size:
;1804 bytes for displays organized as horizontal rows of bytes
;1804 bytes for displays organized as rows of vertical bytes.
;****************************************************************************/
;
;flash unsigned char eagle[]=
;{
;/* Image width: 120 pixels */
;0x78, 0x00,
;/* Image height: 120 pixels */
;0x78, 0x00,
;#ifndef _GLCD_DATA_BYTEY_
;/* Image data for monochrome displays organized
;   as horizontal rows of bytes */
;0x00, 0x00, 0x00, 0x00, 0x00, 0x00, 0x00, 0x00,
;0x00, 0x00, 0x00, 0x00, 0x00, 0x00, 0x00, 0x00,
;0x00, 0x00, 0x00, 0x00, 0x00, 0x00, 0x00, 0x00,
;0x00, 0x00, 0x00, 0x00, 0x00, 0x00, 0x00, 0x00,
;0x00, 0x00, 0x00, 0x00, 0x00, 0x00, 0x00, 0x00,
;0x00, 0x00, 0x00, 0x00, 0x00, 0x00, 0x00, 0x00,
;0x00, 0x00, 0x00, 0xFC, 0xFF, 0x0F, 0x00, 0x00,
;0x00, 0x00, 0x00, 0x00, 0x00, 0x00, 0x00, 0x00,
;0x00, 0xF0, 0xFF, 0xFF, 0xFF, 0x00, 0x00, 0x00,
;0x00, 0x00, 0x00, 0x00, 0x00, 0x00, 0x00, 0x00,
;0xFF, 0xFF, 0xFF, 0xFF, 0x07, 0x00, 0x00, 0x00,
;0x00, 0x00, 0x00, 0x00, 0x00, 0x00, 0xE0, 0xFF,
;0xFF, 0xFF, 0xFF, 0x3F, 0x00, 0x00, 0x00, 0x00,
;0x00, 0x00, 0x00, 0x00, 0x00, 0xF8, 0xFF, 0xFF,
;0xFF, 0xFF, 0xFF, 0x00, 0x00, 0x00, 0x00, 0x00,
;0x00, 0x00, 0x00, 0x00, 0xFE, 0xFF, 0xFF, 0xFF,
;0xFF, 0xFF, 0x01, 0x00, 0x00, 0x00, 0x00, 0x00,
;0x00, 0x00, 0x80, 0xFF, 0xFF, 0xFF, 0xFF, 0xFF,
;0xFF, 0x07, 0x00, 0x00, 0x00, 0x00, 0x00, 0x00,
;0x00, 0xE0, 0xFF, 0xFF, 0xFF, 0xF1, 0xFF, 0xFF,
;0x0F, 0x00, 0x00, 0x00, 0x00, 0x00, 0x00, 0x00,
;0xF8, 0xFF, 0xFF, 0x00, 0x00, 0xF0, 0xFF, 0x1F,
;0x00, 0x00, 0x00, 0x00, 0x00, 0x00, 0x00, 0xFC,
;0xFF, 0x0F, 0x00, 0x00, 0x00, 0xFF, 0x3F, 0x00,
;0x00, 0x00, 0x00, 0x00, 0x00, 0x00, 0xFF, 0xFF,
;0x01, 0x00, 0x00, 0x00, 0xF8, 0x7F, 0x00, 0x00,
;0x00, 0x00, 0x00, 0x00, 0x80, 0xFF, 0x3F, 0x00,
;0x00, 0x00, 0x00, 0xE0, 0xFF, 0x00, 0x00, 0x00,
;0x00, 0x00, 0x00, 0xC0, 0xFF, 0x0F, 0x00, 0x00,
;0x00, 0x00, 0x80, 0xFF, 0x01, 0x00, 0x00, 0x00,
;0x00, 0x00, 0xF0, 0xFF, 0x03, 0x00, 0x00, 0x00,
;0x00, 0x00, 0xFE, 0x03, 0x00, 0x00, 0x00, 0x00,
;0x00, 0xF8, 0xFF, 0x00, 0x00, 0x00, 0x00, 0x00,
;0x00, 0xFC, 0x07, 0x00, 0x00, 0x00, 0x00, 0x00,
;0xFC, 0x3F, 0x00, 0x00, 0x00, 0x00, 0x00, 0x00,
;0xF8, 0x07, 0x00, 0x00, 0x00, 0x00, 0x00, 0xFE,
;0x0F, 0x00, 0x00, 0x00, 0x00, 0x00, 0x00, 0xE0,
;0x0F, 0x00, 0x00, 0x00, 0x00, 0x00, 0xFF, 0x07,
;0x00, 0x00, 0x80, 0x0F, 0x00, 0x00, 0xC0, 0x0F,
;0x00, 0x00, 0x00, 0x00, 0x00, 0xFF, 0x01, 0x00,
;0x00, 0xFF, 0x1F, 0x00, 0x00, 0x80, 0x1F, 0x00,
;0x00, 0x00, 0x00, 0x80, 0xFF, 0x00, 0x00, 0xF0,
;0xFF, 0x03, 0x00, 0x00, 0x00, 0x1F, 0x00, 0x00,
;0x00, 0x00, 0xC0, 0x7F, 0x00, 0x00, 0xFE, 0xFF,
;0x00, 0x00, 0x00, 0x00, 0x1E, 0x00, 0x00, 0x00,
;0x00, 0xE0, 0x3F, 0x00, 0x80, 0xFF, 0x3F, 0x00,
;0x00, 0x00, 0x00, 0x3C, 0x00, 0x00, 0x00, 0x00,
;0xF0, 0x1F, 0x00, 0xE0, 0xFF, 0x07, 0x00, 0x00,
;0x00, 0x00, 0x3C, 0x00, 0x00, 0x00, 0x00, 0xF0,
;0x0F, 0x00, 0xF8, 0xFF, 0x00, 0x00, 0x00, 0x00,
;0x00, 0x38, 0x00, 0x00, 0x00, 0x00, 0xF8, 0x07,
;0x00, 0xFC, 0x3F, 0x80, 0x81, 0x7F, 0x00, 0x00,
;0x70, 0x00, 0x00, 0x00, 0x00, 0xFC, 0x03, 0x00,
;0xFF, 0x0F, 0x00, 0xFF, 0xFF, 0x00, 0x00, 0x70,
;0x00, 0x00, 0x00, 0x00, 0xFC, 0x01, 0x80, 0xFF,
;0x03, 0x00, 0xFC, 0xFF, 0x01, 0x00, 0x60, 0x00,
;0x20, 0x00, 0x00, 0xFE, 0x00, 0xC0, 0xFF, 0x00,
;0x00, 0xF0, 0xF9, 0x03, 0x00, 0x60, 0x00, 0x20,
;0x00, 0x00, 0x7E, 0x00, 0xE0, 0x7F, 0x00, 0x00,
;0xF0, 0xF9, 0x07, 0x00, 0x40, 0x00, 0x60, 0x00,
;0x00, 0x7F, 0x00, 0xF0, 0x1F, 0x00, 0x00, 0xF0,
;0xF8, 0x0F, 0x00, 0x40, 0x00, 0xC0, 0x00, 0x00,
;0x3F, 0x00, 0xF8, 0x0F, 0x00, 0x00, 0x70, 0xFC,
;0x0F, 0x00, 0x00, 0x00, 0xC0, 0x00, 0x80, 0x1F,
;0x00, 0xFC, 0x07, 0x00, 0x00, 0x60, 0xFE, 0x1F,
;0x00, 0x00, 0x00, 0xC0, 0x01, 0x80, 0x1F, 0x00,
;0xFE, 0x01, 0x00, 0x00, 0x60, 0xFE, 0x3F, 0x00,
;0x00, 0x00, 0x80, 0x01, 0xC0, 0x0F, 0x00, 0xFF,
;0x00, 0xC0, 0xFF, 0x41, 0xFE, 0x3F, 0x00, 0x00,
;0x00, 0x80, 0x01, 0xC0, 0x07, 0x80, 0x7F, 0x00,
;0xF8, 0xFF, 0x0F, 0xFC, 0x7F, 0x00, 0x00, 0x00,
;0x80, 0x03, 0xE0, 0x07, 0xC0, 0x7F, 0x00, 0xFE,
;0xFF, 0x3F, 0x78, 0xFF, 0x00, 0x00, 0x00, 0x00,
;0x03, 0xE0, 0x03, 0xE0, 0x3F, 0x80, 0xFF, 0xFF,
;0xFF, 0x80, 0x1F, 0x01, 0x00, 0x00, 0x00, 0x07,
;0xE0, 0x03, 0xE0, 0x1F, 0xC0, 0xFF, 0xCF, 0xFF,
;0xE7, 0x07, 0x06, 0x00, 0x00, 0x00, 0x07, 0xF0,
;0x03, 0xF0, 0x0F, 0xE0, 0x0F, 0x00, 0xC0, 0xFF,
;0x03, 0x00, 0x00, 0x00, 0x00, 0x07, 0xF0, 0x01,
;0xF8, 0x07, 0xF0, 0x01, 0x00, 0x00, 0xFC, 0x00,
;0x00, 0x00, 0x00, 0x00, 0x0E, 0xF0, 0x01, 0xF8,
;0x07, 0x38, 0x00, 0x00, 0x00, 0x00, 0x00, 0x00,
;0x00, 0x00, 0x00, 0x0E, 0xF0, 0x00, 0xFC, 0x03,
;0x0C, 0x00, 0x00, 0x00, 0x00, 0x00, 0x00, 0x80,
;0x00, 0x00, 0x0E, 0xF8, 0x00, 0xFC, 0x03, 0x02,
;0x00, 0x00, 0x00, 0x00, 0x00, 0x00, 0x00, 0x03,
;0x00, 0x0E, 0xF8, 0x00, 0xFE, 0x01, 0x00, 0x00,
;0x00, 0x00, 0x00, 0x00, 0x00, 0x00, 0x07, 0x00,
;0x1C, 0x78, 0x00, 0xFE, 0x01, 0x00, 0x80, 0xFF,
;0xFF, 0x07, 0x00, 0x00, 0x00, 0x0E, 0x00, 0x1C,
;0x78, 0x00, 0xFF, 0x00, 0x00, 0xF8, 0xFF, 0xFF,
;0xFF, 0x00, 0x00, 0x00, 0x0E, 0x00, 0x1C, 0x7C,
;0x00, 0xFF, 0x00, 0x00, 0xFF, 0xFF, 0xFF, 0xFF,
;0x1F, 0x00, 0x0F, 0x1C, 0x00, 0x1C, 0x7C, 0x80,
;0x7F, 0x00, 0xE0, 0xFF, 0xFF, 0xFF, 0xFF, 0xFF,
;0xC0, 0x3F, 0x1C, 0x00, 0x3C, 0x3C, 0x80, 0x7F,
;0x00, 0xF8, 0xFF, 0x3F, 0xC0, 0xFF, 0xFF, 0x03,
;0x3F, 0x1C, 0x00, 0x3C, 0x3C, 0x80, 0x7F, 0x00,
;0xFE, 0x1F, 0x00, 0x00, 0x80, 0xFF, 0x07, 0x10,
;0x38, 0x00, 0x3C, 0x3C, 0xC0, 0x3F, 0x00, 0xFF,
;0x03, 0x00, 0x00, 0x00, 0xF8, 0x07, 0x00, 0x38,
;0x00, 0x3C, 0x3C, 0xC0, 0x3F, 0xC0, 0x7F, 0x00,
;0x00, 0x00, 0x00, 0xC0, 0x0F, 0x00, 0x38, 0x00,
;0x3C, 0x3C, 0xC0, 0x3F, 0xE0, 0x1F, 0x00, 0x00,
;0x00, 0x00, 0x00, 0x3F, 0x00, 0x38, 0x00, 0x3C,
;0x3C, 0xC0, 0x1F, 0xF0, 0x07, 0x00, 0x00, 0x00,
;0x00, 0x00, 0x7C, 0x00, 0x38, 0x00, 0x3C, 0x1C,
;0xE0, 0x1F, 0xF8, 0x03, 0x00, 0x00, 0x00, 0x00,
;0x00, 0xF8, 0x00, 0x78, 0x00, 0x3C, 0x1C, 0xE0,
;0x1F, 0xF8, 0x01, 0x00, 0x00, 0x00, 0x00, 0x00,
;0xE0, 0x01, 0x78, 0x00, 0x3C, 0x1C, 0xE0, 0x1F,
;0xFC, 0x00, 0x00, 0xF0, 0xFF, 0x07, 0x00, 0xC0,
;0x03, 0x78, 0x00, 0x3C, 0x1C, 0xE0, 0x1F, 0x7C,
;0x00, 0x00, 0xFF, 0xFF, 0x7F, 0x00, 0x80, 0x07,
;0x78, 0x00, 0x3C, 0x1C, 0xE0, 0x1F, 0x3E, 0x00,
;0xE0, 0xFF, 0xFF, 0xFF, 0x03, 0x00, 0x0F, 0x78,
;0x00, 0x3C, 0x1C, 0xE0, 0x0F, 0x3E, 0x00, 0xFC,
;0x7F, 0x00, 0x00, 0x00, 0x00, 0x1E, 0x38, 0x00,
;0x3C, 0x1C, 0xF0, 0x0F, 0x1E, 0x00, 0xFF, 0x0F,
;0x00, 0x00, 0x00, 0x00, 0x3C, 0x38, 0x00, 0x3C,
;0x1C, 0xF0, 0x0F, 0x1E, 0x80, 0xFF, 0x03, 0x00,
;0x00, 0x00, 0x00, 0x38, 0x38, 0x00, 0x3E, 0x1C,
;0xF0, 0x0F, 0x0F, 0xC0, 0xFF, 0x00, 0x80, 0x03,
;0x00, 0x00, 0x70, 0x38, 0x00, 0x3E, 0x1C, 0xF0,
;0x0F, 0x0F, 0xF0, 0x7F, 0x00, 0xFC, 0x03, 0x00,
;0x00, 0x70, 0x3C, 0x00, 0x3E, 0x3C, 0xF0, 0x0F,
;0x0F, 0xF0, 0x1F, 0x80, 0xFF, 0x60, 0x00, 0x00,
;0xE0, 0x3C, 0x00, 0x3E, 0x38, 0xF0, 0x0F, 0x06,
;0xF8, 0x0F, 0xC0, 0x3F, 0x30, 0x00, 0x00, 0xE0,
;0x1C, 0x00, 0x3E, 0x38, 0xF0, 0x0F, 0x06, 0xFC,
;0x07, 0xE0, 0x1F, 0x38, 0x00, 0x00, 0xE0, 0x1C,
;0x00, 0x1F, 0x38, 0xF0, 0x0F, 0x06, 0xFC, 0x07,
;0xF0, 0x0F, 0x18, 0x00, 0x00, 0xE0, 0x0E, 0x00,
;0x1F, 0x38, 0xF0, 0x1F, 0x06, 0xFE, 0x03, 0xF8,
;0x07, 0x1C, 0x00, 0x00, 0xE0, 0x0E, 0x00, 0x1F,
;0x38, 0xF0, 0x1F, 0x06, 0xFE, 0x01, 0xFC, 0x03,
;0x1E, 0x00, 0x00, 0xE0, 0x07, 0x00, 0x1F, 0x30,
;0xE0, 0x1F, 0x06, 0xFE, 0x01, 0xFC, 0x01, 0x0E,
;0x00, 0x00, 0xE0, 0x07, 0x80, 0x0F, 0x70, 0xE0,
;0x1F, 0x00, 0xFF, 0x01, 0xFE, 0x01, 0x0F, 0x00,
;0x00, 0xE0, 0x03, 0x80, 0x0F, 0x70, 0xE0, 0x1F,
;0x00, 0xFF, 0x00, 0xFE, 0x00, 0x0F, 0x00, 0x00,
;0xF0, 0x01, 0xC0, 0x0F, 0x60, 0xE0, 0x1F, 0x00,
;0xFF, 0x00, 0xFF, 0x00, 0x0F, 0x00, 0x00, 0xF0,
;0x00, 0xC0, 0x0F, 0xE0, 0xE0, 0x3F, 0x00, 0xFF,
;0x00, 0x7F, 0x00, 0x0F, 0x00, 0x00, 0x70, 0x00,
;0xC0, 0x07, 0xE0, 0xE0, 0x3F, 0x00, 0x7F, 0x00,
;0x7F, 0x80, 0x1F, 0x00, 0x00, 0x38, 0x00, 0xE0,
;0x07, 0xC0, 0xE0, 0x3F, 0x00, 0x7F, 0x80, 0x7F,
;0x80, 0x1F, 0x00, 0x00, 0x08, 0x00, 0xE0, 0x03,
;0xC0, 0xC0, 0x3F, 0x00, 0x7F, 0x80, 0x3F, 0x80,
;0x1F, 0x00, 0x00, 0x00, 0x00, 0xF0, 0x03, 0x80,
;0xC1, 0x7F, 0x00, 0x7F, 0x80, 0x3F, 0x80, 0x1F,
;0x00, 0x00, 0x00, 0x00, 0xF0, 0x03, 0x80, 0xC1,
;0x7F, 0x00, 0x7F, 0x80, 0x3F, 0x00, 0x3F, 0x00,
;0x00, 0x00, 0x00, 0xF8, 0x01, 0x00, 0xC3, 0xFF,
;0x00, 0x7F, 0x80, 0x3F, 0x00, 0x3F, 0x00, 0x00,
;0x00, 0x00, 0xFC, 0x01, 0x00, 0x83, 0xFF, 0x00,
;0x7F, 0x80, 0x3F, 0x00, 0x7F, 0x00, 0x00, 0x00,
;0x00, 0xFC, 0x00, 0x00, 0x82, 0xFF, 0x01, 0x7E,
;0x80, 0x3F, 0x00, 0xFE, 0x00, 0x00, 0x00, 0x00,
;0xFE, 0x00, 0x00, 0x84, 0xFF, 0x01, 0x7E, 0x00,
;0x3F, 0x00, 0xFE, 0x00, 0x00, 0x00, 0x00, 0x7F,
;0x00, 0x00, 0x04, 0xFF, 0x03, 0x7E, 0x00, 0x3F,
;0x00, 0xFC, 0x01, 0x00, 0x00, 0x00, 0x7F, 0x00,
;0x00, 0x00, 0xFF, 0x03, 0x7C, 0x00, 0x3F, 0x00,
;0xF8, 0x03, 0x00, 0x00, 0x80, 0x3F, 0x00, 0x00,
;0x00, 0xFF, 0x07, 0xFC, 0x00, 0x3E, 0x00, 0xF0,
;0x0F, 0x00, 0x00, 0xC0, 0x1F, 0x00, 0x00, 0x00,
;0xFE, 0x07, 0xF8, 0x00, 0x7E, 0x00, 0xE0, 0x3F,
;0x00, 0x00, 0xE0, 0x1F, 0x00, 0x00, 0x00, 0xFE,
;0x0F, 0xF0, 0x00, 0x7E, 0x00, 0x80, 0xFF, 0x83,
;0x01, 0xF0, 0x0F, 0x00, 0x00, 0x00, 0xFC, 0x1F,
;0xF0, 0x00, 0x7C, 0x00, 0x00, 0xFE, 0x7F, 0x00,
;0xF8, 0x0F, 0x00, 0x00, 0x00, 0xFC, 0x3F, 0xE0,
;0x01, 0x78, 0x00, 0x00, 0xF0, 0x0F, 0x00, 0xFC,
;0x07, 0x00, 0x00, 0x00, 0xF8, 0x7F, 0xC0, 0x01,
;0xF8, 0x00, 0x00, 0x00, 0x00, 0x00, 0xFE, 0x03,
;0x00, 0x00, 0x00, 0xF8, 0x7F, 0x80, 0x01, 0xF0,
;0x00, 0x00, 0x00, 0x00, 0x00, 0xFF, 0x01, 0x00,
;0x00, 0x00, 0xF0, 0xFF, 0x00, 0x03, 0xF0, 0x01,
;0x00, 0x00, 0x00, 0x80, 0xFF, 0x00, 0x00, 0x00,
;0x00, 0xF0, 0xFF, 0x03, 0x00, 0xE0, 0x01, 0x00,
;0x00, 0x00, 0xE0, 0xFF, 0x00, 0x00, 0x00, 0x00,
;0xE0, 0xFF, 0x07, 0x00, 0xC0, 0x03, 0x00, 0x00,
;0x00, 0xF0, 0x7F, 0x00, 0x00, 0x00, 0x00, 0xC0,
;0xFF, 0x0F, 0x00, 0x80, 0x07, 0x00, 0x00, 0x00,
;0xFC, 0x3F, 0x00, 0x00, 0x00, 0x00, 0xC0, 0xFF,
;0x1F, 0x00, 0x00, 0x06, 0x00, 0x00, 0x00, 0xFE,
;0x1F, 0x00, 0x00, 0x00, 0x00, 0x80, 0xFF, 0x7F,
;0x00, 0x00, 0x0C, 0x00, 0x00, 0x80, 0xFF, 0x0F,
;0x00, 0x00, 0x00, 0x00, 0x00, 0xFF, 0xFF, 0x01,
;0x00, 0x10, 0x00, 0x00, 0xE0, 0xFF, 0x07, 0x00,
;0x00, 0x00, 0x00, 0x00, 0xFE, 0xFF, 0x07, 0x00,
;0x00, 0x00, 0x00, 0xF8, 0xFF, 0x03, 0x00, 0x00,
;0x00, 0x00, 0x00, 0xFC, 0xFF, 0x1F, 0x00, 0x00,
;0x00, 0x00, 0xFF, 0xFF, 0x00, 0x00, 0x00, 0x00,
;0x00, 0x00, 0xF8, 0xFF, 0x7F, 0x00, 0x00, 0x00,
;0xE0, 0xFF, 0x7F, 0x00, 0x00, 0x00, 0x00, 0x00,
;0x00, 0xF0, 0xFF, 0xFF, 0x03, 0x00, 0x00, 0xFC,
;0xFF, 0x3F, 0x00, 0x00, 0x00, 0x00, 0x00, 0x00,
;0xE0, 0xFF, 0xFF, 0x7F, 0x00, 0xF0, 0xFF, 0xFF,
;0x0F, 0x00, 0x00, 0x00, 0x00, 0x00, 0x00, 0x80,
;0xFF, 0xFF, 0xFF, 0xFF, 0xFF, 0xFF, 0xFF, 0x07,
;0x00, 0x00, 0x00, 0x00, 0x00, 0x00, 0x00, 0xFF,
;0xFF, 0xFF, 0xFF, 0xFF, 0xFF, 0xFF, 0x01, 0x00,
;0x00, 0x00, 0x00, 0x00, 0x00, 0x00, 0xFC, 0xFF,
;0xFF, 0xFF, 0xFF, 0xFF, 0x7F, 0x00, 0x00, 0x00,
;0x00, 0x00, 0x00, 0x00, 0x00, 0xF0, 0xFF, 0xFF,
;0xFF, 0xFF, 0xFF, 0x3F, 0x00, 0x00, 0x00, 0x00,
;0x00, 0x00, 0x00, 0x00, 0xC0, 0xFF, 0xFF, 0xFF,
;0xFF, 0xFF, 0x07, 0x00, 0x00, 0x00, 0x00, 0x00,
;0x00, 0x00, 0x00, 0x00, 0xFF, 0xFF, 0xFF, 0xFF,
;0xFF, 0x01, 0x00, 0x00, 0x00, 0x00, 0x00, 0x00,
;0x00, 0x00, 0x00, 0xF8, 0xFF, 0xFF, 0xFF, 0x3F,
;0x00, 0x00, 0x00, 0x00, 0x00, 0x00, 0x00, 0x00,
;0x00, 0x00, 0x80, 0xFF, 0xFF, 0xFF, 0x03, 0x00,
;0x00, 0x00, 0x00, 0x00, 0x00, 0x00, 0x00, 0x00,
;0x00, 0x00, 0xF0, 0xFF, 0x1F, 0x00, 0x00, 0x00,
;0x00, 0x00, 0x00, 0x00, 0x00, 0x00, 0x00, 0x00,
;0x00, 0x00, 0x00, 0x00, 0x00, 0x00, 0x00, 0x00,
;0x00, 0x00, 0x00, 0x00, 0x00, 0x00, 0x00, 0x00,
;0x00, 0x00, 0x00, 0x00, 0x00, 0x00, 0x00, 0x00,
;0x00, 0x00, 0x00, 0x00, 0x00, 0x00, 0x00, 0x00,
;0x00, 0x00, 0x00, 0x00, 0x00, 0x00, 0x00, 0x00,
;#else
;/* Image data for monochrome displays organized
;   as rows of vertical bytes */
;0x00, 0x00, 0x00, 0x00, 0x00, 0x00, 0x00, 0x00,
;0x00, 0x00, 0x00, 0x00, 0x00, 0x00, 0x00, 0x00,
;0x00, 0x00, 0x00, 0x00, 0x00, 0x00, 0x00, 0x00,
;0x00, 0x00, 0x00, 0x00, 0x00, 0x00, 0x00, 0x00,
;0x00, 0x00, 0x00, 0x80, 0x80, 0xC0, 0xC0, 0xC0,
;0xE0, 0xE0, 0xE0, 0xE0, 0xF0, 0xF0, 0xF0, 0xF0,
;0xF0, 0xF0, 0xF8, 0xF8, 0xF8, 0xF8, 0xF8, 0xF8,
;0xF8, 0xF8, 0xF8, 0xF8, 0xF8, 0xF8, 0xF8, 0xF8,
;0xF8, 0xF8, 0xF8, 0xF8, 0xF0, 0xF0, 0xF0, 0xF0,
;0xE0, 0xE0, 0xE0, 0xC0, 0xC0, 0xC0, 0x80, 0x80,
;0x00, 0x00, 0x00, 0x00, 0x00, 0x00, 0x00, 0x00,
;0x00, 0x00, 0x00, 0x00, 0x00, 0x00, 0x00, 0x00,
;0x00, 0x00, 0x00, 0x00, 0x00, 0x00, 0x00, 0x00,
;0x00, 0x00, 0x00, 0x00, 0x00, 0x00, 0x00, 0x00,
;0x00, 0x00, 0x00, 0x00, 0x00, 0x00, 0x00, 0x00,
;0x00, 0x00, 0x00, 0x00, 0x00, 0x00, 0x00, 0x00,
;0x00, 0x00, 0x00, 0x00, 0x00, 0x00, 0x00, 0x00,
;0x00, 0x00, 0x00, 0x00, 0x00, 0x00, 0x80, 0xC0,
;0xE0, 0xE0, 0xF0, 0xF8, 0xF8, 0xFC, 0xFC, 0xFE,
;0xFE, 0xFF, 0xFF, 0xFF, 0x7F, 0x7F, 0x3F, 0x3F,
;0x3F, 0x1F, 0x1F, 0x1F, 0x0F, 0x0F, 0x0F, 0x0F,
;0x07, 0x07, 0x07, 0x07, 0x07, 0x07, 0x07, 0x07,
;0x07, 0x03, 0x03, 0x03, 0x07, 0x07, 0x07, 0x07,
;0x07, 0x07, 0x07, 0x07, 0x0F, 0x0F, 0x0F, 0x0F,
;0x1F, 0x1F, 0x1F, 0x3F, 0x3F, 0x7F, 0x7F, 0xFF,
;0xFF, 0xFE, 0xFE, 0xFC, 0xF8, 0xF0, 0xE0, 0xC0,
;0x80, 0x00, 0x00, 0x00, 0x00, 0x00, 0x00, 0x00,
;0x00, 0x00, 0x00, 0x00, 0x00, 0x00, 0x00, 0x00,
;0x00, 0x00, 0x00, 0x00, 0x00, 0x00, 0x00, 0x00,
;0x00, 0x00, 0x00, 0x00, 0x00, 0x00, 0x00, 0x00,
;0x00, 0x00, 0x00, 0x00, 0x00, 0x00, 0x00, 0x00,
;0x00, 0x00, 0x00, 0x00, 0x00, 0x00, 0x80, 0xC0,
;0xF0, 0xF8, 0xFC, 0xFE, 0xFF, 0xFF, 0xFF, 0x7F,
;0x3F, 0x1F, 0x1F, 0x0F, 0x07, 0x07, 0x03, 0x03,
;0x01, 0x01, 0x00, 0x00, 0x00, 0x00, 0x00, 0x00,
;0x00, 0x80, 0x80, 0x80, 0xC0, 0xC0, 0xC0, 0xC0,
;0xE0, 0xE0, 0xE0, 0xE0, 0xE0, 0xE0, 0xE0, 0xF0,
;0x70, 0x70, 0x30, 0x30, 0x20, 0x00, 0x00, 0x00,
;0x00, 0x00, 0x00, 0x00, 0x00, 0x00, 0x00, 0x00,
;0x00, 0x00, 0x00, 0x00, 0x00, 0x00, 0x00, 0x00,
;0x00, 0x01, 0x03, 0x07, 0x07, 0x0F, 0x1F, 0x3F,
;0x7F, 0xFF, 0xFE, 0xF8, 0xE0, 0x00, 0x00, 0x00,
;0x00, 0x00, 0x00, 0x00, 0x00, 0x00, 0x00, 0x00,
;0x00, 0x00, 0x00, 0x00, 0x00, 0x00, 0x00, 0x00,
;0x00, 0x00, 0x00, 0x00, 0x00, 0x00, 0x00, 0x00,
;0x00, 0x00, 0x00, 0x00, 0x00, 0x00, 0x00, 0x00,
;0x00, 0xC0, 0xF0, 0xF8, 0xFE, 0xFF, 0xFF, 0x7F,
;0x3F, 0x1F, 0x0F, 0x07, 0x03, 0x01, 0x00, 0x00,
;0x00, 0x00, 0x00, 0x00, 0x00, 0x80, 0xC0, 0xE0,
;0xF0, 0xF0, 0xF8, 0xFC, 0xFC, 0xFE, 0xFE, 0x7F,
;0x3F, 0x3F, 0x1F, 0x1F, 0x0F, 0x0F, 0x07, 0x07,
;0x03, 0x03, 0x03, 0x01, 0x01, 0x01, 0x00, 0x08,
;0x18, 0x10, 0x30, 0x30, 0xF0, 0xF0, 0xF0, 0xF8,
;0xF8, 0x38, 0x38, 0xF8, 0xF8, 0xF8, 0xF8, 0xF0,
;0xE0, 0xC0, 0x80, 0x00, 0x00, 0x00, 0x00, 0x00,
;0x00, 0x00, 0x00, 0x00, 0x00, 0x00, 0x00, 0x00,
;0x00, 0x00, 0x03, 0x07, 0x1F, 0x7F, 0xF8, 0x00,
;0x00, 0x00, 0x00, 0x00, 0x00, 0x00, 0x00, 0x00,
;0x00, 0x00, 0x00, 0x00, 0x00, 0xE0, 0x80, 0x00,
;0x00, 0x00, 0x00, 0x00, 0x00, 0x00, 0x00, 0x00,
;0x00, 0x00, 0x00, 0x00, 0x00, 0xC0, 0xF0, 0xFC,
;0xFF, 0xFF, 0x7F, 0x1F, 0x0F, 0x03, 0x01, 0x00,
;0x00, 0x00, 0x00, 0x00, 0x00, 0x80, 0xC0, 0xE0,
;0xF0, 0xF8, 0xFC, 0xFE, 0xFF, 0xFF, 0x7F, 0x1F,
;0x0F, 0x07, 0x07, 0x03, 0x01, 0x00, 0x00, 0x80,
;0x80, 0xC0, 0xC0, 0xE0, 0xE0, 0xE0, 0xF0, 0xF0,
;0xF0, 0xF0, 0xF0, 0xF0, 0xF0, 0xF0, 0xF0, 0xF0,
;0xF0, 0xE0, 0xE0, 0xE0, 0xC3, 0xCF, 0x9F, 0x81,
;0x00, 0x1C, 0x3E, 0x7F, 0x7F, 0x7F, 0x7F, 0xBF,
;0xFF, 0xFF, 0xFF, 0xFF, 0xFC, 0x78, 0x60, 0x40,
;0x80, 0x00, 0x00, 0x00, 0x00, 0x00, 0x00, 0x00,
;0x00, 0x00, 0x00, 0x00, 0x00, 0x00, 0x01, 0x00,
;0x00, 0x00, 0x00, 0x00, 0x00, 0x00, 0x00, 0x00,
;0x00, 0x00, 0x00, 0x00, 0x00, 0x00, 0x07, 0x3F,
;0xFC, 0xE0, 0x80, 0x00, 0x00, 0x00, 0x00, 0x00,
;0x00, 0x00, 0x00, 0xE0, 0xFE, 0xFF, 0xFF, 0x7F,
;0x0F, 0x03, 0x00, 0x00, 0x00, 0x00, 0x00, 0x00,
;0x00, 0xC0, 0xF0, 0xFC, 0xFE, 0xFF, 0xFF, 0xFF,
;0xFF, 0x3F, 0x0F, 0x03, 0x01, 0x00, 0x00, 0x00,
;0x00, 0x20, 0x10, 0x18, 0x0C, 0x0E, 0x07, 0x07,
;0x07, 0x03, 0x03, 0x03, 0x01, 0x01, 0x01, 0x81,
;0x81, 0x81, 0x81, 0x81, 0x80, 0x80, 0x81, 0x81,
;0x81, 0x81, 0x81, 0x81, 0x81, 0x81, 0x83, 0x83,
;0x83, 0x83, 0x87, 0x06, 0x06, 0x07, 0x07, 0x07,
;0x03, 0x03, 0x01, 0x00, 0x00, 0x00, 0x00, 0x00,
;0x00, 0x01, 0x01, 0x00, 0x00, 0x00, 0x00, 0x00,
;0x00, 0x00, 0x00, 0x00, 0x00, 0x00, 0x00, 0x10,
;0x60, 0xE0, 0xC0, 0x80, 0x00, 0x00, 0x00, 0x00,
;0x00, 0x00, 0x00, 0x00, 0x00, 0x00, 0x00, 0x00,
;0x03, 0x3F, 0xFF, 0xFC, 0xC0, 0x00, 0x00, 0x00,
;0x00, 0x00, 0xFE, 0xFF, 0xFF, 0xFF, 0x07, 0x00,
;0x00, 0x00, 0x00, 0x00, 0x00, 0x00, 0xE0, 0xFC,
;0xFF, 0xFF, 0xFF, 0xFF, 0xFF, 0xFF, 0x1F, 0x03,
;0x00, 0x00, 0x00, 0x00, 0x00, 0x80, 0xC0, 0xC0,
;0xE0, 0xF0, 0xF0, 0xF8, 0xF8, 0x7C, 0x7C, 0x3C,
;0x3E, 0x3E, 0x1E, 0x1F, 0x1F, 0x0F, 0x0F, 0x0F,
;0x0F, 0x0F, 0x0F, 0x0F, 0x0F, 0x0F, 0x07, 0x07,
;0x07, 0x07, 0x07, 0x07, 0x07, 0x07, 0x0F, 0x0F,
;0x0F, 0x0F, 0x0F, 0x0F, 0x0F, 0x0F, 0x0F, 0x1F,
;0x1E, 0x1E, 0x1E, 0x3E, 0x3E, 0x3C, 0x7C, 0x7C,
;0xF8, 0xF8, 0xF0, 0xC0, 0x80, 0x80, 0x04, 0x04,
;0x0E, 0x0E, 0x0E, 0x0E, 0x1C, 0x0C, 0x00, 0x00,
;0x00, 0x01, 0x0F, 0xFF, 0xFE, 0xF0, 0x00, 0x00,
;0x00, 0x00, 0x00, 0x00, 0x00, 0x00, 0x00, 0x00,
;0x00, 0x00, 0xFF, 0xFF, 0xFF, 0xFC, 0x00, 0x00,
;0x00, 0x00, 0xFF, 0xFF, 0xFF, 0x01, 0x00, 0x00,
;0x00, 0x00, 0x00, 0x00, 0x80, 0xFE, 0xFF, 0xFF,
;0xFF, 0xFF, 0xFF, 0xFF, 0x3F, 0x00, 0x00, 0x00,
;0x00, 0xE0, 0xF8, 0xFE, 0xFF, 0x7F, 0x1F, 0x0F,
;0x07, 0x03, 0x01, 0x00, 0x00, 0x00, 0x00, 0x00,
;0x80, 0x80, 0xC0, 0xC0, 0xC0, 0xE0, 0xE0, 0xE0,
;0xF0, 0xF0, 0xF0, 0xF0, 0x78, 0x78, 0x78, 0x38,
;0x38, 0x38, 0x38, 0x38, 0x38, 0x38, 0x38, 0x38,
;0x38, 0x38, 0x38, 0x30, 0x30, 0x30, 0x30, 0x20,
;0x20, 0x20, 0x00, 0x00, 0x00, 0x00, 0x00, 0x00,
;0x00, 0x00, 0x01, 0x03, 0x03, 0x07, 0x0F, 0x1E,
;0x3C, 0x78, 0xF0, 0xE0, 0xC0, 0x80, 0x00, 0x00,
;0x00, 0x00, 0x00, 0xFF, 0xFF, 0xFF, 0x3E, 0x00,
;0x00, 0x00, 0x00, 0x00, 0x00, 0x00, 0x00, 0x00,
;0x00, 0x00, 0xFF, 0xFF, 0xFF, 0xFF, 0x00, 0x00,
;0x00, 0x00, 0x0F, 0xFF, 0xFF, 0xF8, 0x00, 0x00,
;0x00, 0x00, 0x00, 0x00, 0xFF, 0xFF, 0xFF, 0xFF,
;0xFF, 0xFF, 0xFF, 0xFF, 0x80, 0x00, 0x00, 0x00,
;0x0E, 0xFF, 0xFF, 0x0F, 0x01, 0x00, 0x00, 0x00,
;0x00, 0x80, 0xE0, 0xF0, 0xFC, 0xFC, 0xFE, 0xFF,
;0xFF, 0xFF, 0x7F, 0x1F, 0x0F, 0x07, 0x07, 0x03,
;0x01, 0x01, 0x00, 0x80, 0xC0, 0xE0, 0xF0, 0xF8,
;0xF8, 0xF8, 0xFC, 0x7C, 0x3C, 0x1C, 0x0C, 0x0E,
;0x06, 0x06, 0x80, 0xE0, 0xF0, 0x38, 0x08, 0x00,
;0x00, 0x00, 0x00, 0x00, 0x00, 0x00, 0x00, 0x00,
;0x00, 0x00, 0x00, 0x00, 0x00, 0x00, 0x00, 0x00,
;0x00, 0x00, 0x00, 0x01, 0x07, 0xFF, 0xFE, 0xF8,
;0x00, 0xC0, 0xFC, 0xFF, 0x3F, 0x0F, 0x00, 0x00,
;0x00, 0x00, 0x00, 0x00, 0x00, 0x00, 0x00, 0x00,
;0xE0, 0xFF, 0xFF, 0xFF, 0xFF, 0x1F, 0x00, 0x00,
;0x00, 0x00, 0x00, 0x01, 0x0F, 0x7F, 0xFC, 0xE0,
;0x00, 0x00, 0x00, 0x00, 0x01, 0xFF, 0xFF, 0xFF,
;0xFF, 0xFF, 0xFF, 0xFF, 0xFF, 0xE0, 0x00, 0x00,
;0x00, 0x03, 0x03, 0x00, 0x00, 0x00, 0x00, 0x00,
;0xFC, 0xFF, 0xFF, 0xFF, 0xFF, 0xFF, 0xFF, 0x3F,
;0x07, 0x00, 0x00, 0x00, 0x00, 0x00, 0x00, 0x80,
;0xF0, 0xFC, 0xFF, 0xFF, 0xFF, 0xFF, 0xFF, 0x1F,
;0x07, 0x01, 0x00, 0x00, 0x00, 0x00, 0x00, 0xC0,
;0xFC, 0xFF, 0xFF, 0xFF, 0xC1, 0x00, 0x00, 0x00,
;0x00, 0x00, 0x00, 0x00, 0x00, 0x00, 0x00, 0x00,
;0x00, 0x00, 0x00, 0x00, 0x00, 0x00, 0x00, 0x00,
;0x00, 0x00, 0x00, 0xC0, 0x78, 0x7F, 0x3F, 0x1F,
;0x0F, 0x07, 0x03, 0x00, 0x00, 0x00, 0x00, 0x00,
;0x00, 0x00, 0x00, 0x00, 0x00, 0xC0, 0xF8, 0xFE,
;0xFF, 0xFF, 0x7F, 0x1F, 0x01, 0x00, 0x00, 0x00,
;0x00, 0x00, 0x00, 0x00, 0x00, 0x00, 0x01, 0x07,
;0x1E, 0x38, 0xC0, 0x00, 0x00, 0x00, 0x0F, 0x7F,
;0xFF, 0xFF, 0xFF, 0xFF, 0xFF, 0xFF, 0xFE, 0xF8,
;0xE0, 0x80, 0x00, 0x00, 0x00, 0x00, 0x00, 0x00,
;0x1F, 0xFF, 0xFF, 0xFF, 0xFF, 0xFF, 0xFF, 0x00,
;0x00, 0x00, 0x00, 0x00, 0x00, 0x00, 0x00, 0x3F,
;0xFF, 0xFF, 0xFF, 0xFF, 0xFF, 0xFF, 0x00, 0x00,
;0x00, 0x00, 0x00, 0x00, 0x00, 0x00, 0x00, 0x03,
;0x1F, 0x7F, 0xFF, 0xFF, 0xFF, 0xFC, 0xF0, 0xE0,
;0x80, 0x00, 0x00, 0x00, 0x00, 0x00, 0x00, 0x00,
;0x00, 0x00, 0x00, 0x00, 0x00, 0x00, 0x00, 0x00,
;0x00, 0x00, 0x00, 0x00, 0x00, 0x00, 0x00, 0x00,
;0x00, 0x00, 0x00, 0x00, 0x00, 0x00, 0x00, 0x00,
;0xC0, 0xE0, 0xF8, 0xFC, 0xFF, 0xFF, 0xFF, 0x3F,
;0x0F, 0x03, 0x00, 0x00, 0x00, 0x00, 0x00, 0x00,
;0x00, 0x00, 0x00, 0x00, 0x00, 0x00, 0x00, 0x00,
;0x00, 0x00, 0x00, 0x00, 0x00, 0x00, 0x00, 0x00,
;0x03, 0x0F, 0x3F, 0xFF, 0xFF, 0xFF, 0xFF, 0xFF,
;0xFF, 0xFF, 0xFE, 0xF8, 0xF0, 0xE0, 0xC0, 0x00,
;0x00, 0x00, 0x03, 0x07, 0x1F, 0x3F, 0x7F, 0xFE,
;0xE0, 0x00, 0x00, 0x00, 0x00, 0x00, 0x00, 0x00,
;0x01, 0x0F, 0x1F, 0x7F, 0xFF, 0xFF, 0xFC, 0xC0,
;0x00, 0x00, 0x00, 0x00, 0x00, 0x00, 0x00, 0x00,
;0x00, 0x00, 0x00, 0x01, 0x03, 0x07, 0x07, 0x0F,
;0x0F, 0x1F, 0x1E, 0x1E, 0x3C, 0x3C, 0x38, 0x38,
;0x38, 0x38, 0x30, 0x30, 0x10, 0x10, 0x10, 0x08,
;0x08, 0x00, 0x00, 0x00, 0x00, 0x00, 0x00, 0x00,
;0x80, 0xC0, 0xE0, 0xF0, 0xF8, 0xFC, 0xFE, 0xFF,
;0xFF, 0x7F, 0x3F, 0x1F, 0x07, 0x01, 0x00, 0x00,
;0x00, 0x00, 0x00, 0x00, 0x00, 0x00, 0x00, 0x00,
;0x00, 0x00, 0x00, 0x00, 0x00, 0x00, 0x00, 0x00,
;0x00, 0x00, 0x00, 0x00, 0x00, 0x00, 0x00, 0x00,
;0x00, 0x00, 0x00, 0x00, 0x03, 0x07, 0x1F, 0x3F,
;0x7F, 0xFF, 0xFF, 0xFF, 0xFF, 0xFF, 0xFF, 0xFF,
;0xFE, 0xFE, 0xFC, 0xF8, 0xF0, 0xE0, 0xE0, 0xC0,
;0xC1, 0x81, 0x80, 0x00, 0x00, 0x00, 0x00, 0x00,
;0x00, 0x00, 0x00, 0x00, 0x01, 0x03, 0x07, 0x0F,
;0x0F, 0x1C, 0x38, 0x20, 0x40, 0x00, 0x00, 0x00,
;0x00, 0x00, 0x00, 0x00, 0x00, 0x00, 0x00, 0x00,
;0x00, 0x00, 0x00, 0x00, 0x00, 0x00, 0x00, 0x00,
;0x00, 0x00, 0x00, 0x80, 0x80, 0xC0, 0xC0, 0xE0,
;0xE0, 0xF0, 0xF8, 0xF8, 0xFC, 0xFE, 0xFE, 0xFF,
;0xFF, 0xFF, 0x7F, 0x3F, 0x1F, 0x0F, 0x07, 0x03,
;0x00, 0x00, 0x00, 0x00, 0x00, 0x00, 0x00, 0x00,
;0x00, 0x00, 0x00, 0x00, 0x00, 0x00, 0x00, 0x00,
;0x00, 0x00, 0x00, 0x00, 0x00, 0x00, 0x00, 0x00,
;0x00, 0x00, 0x00, 0x00, 0x00, 0x00, 0x00, 0x00,
;0x00, 0x00, 0x00, 0x00, 0x00, 0x00, 0x00, 0x00,
;0x00, 0x00, 0x01, 0x03, 0x07, 0x0F, 0x0F, 0x1F,
;0x3F, 0x3F, 0x7F, 0x7F, 0xFF, 0xFF, 0xFF, 0xFF,
;0xFF, 0xFF, 0xFF, 0xFF, 0xFF, 0xFE, 0xFE, 0xFC,
;0xFC, 0xFC, 0xF8, 0xF8, 0xF8, 0xF8, 0xF8, 0xF0,
;0xF0, 0xF0, 0xF0, 0xF0, 0xF0, 0xF0, 0xF0, 0xF0,
;0xF0, 0xF0, 0xF0, 0xF0, 0xF8, 0xF8, 0xF8, 0xF8,
;0xF8, 0xF8, 0xFC, 0xFC, 0xFC, 0xFE, 0xFE, 0xFE,
;0xFF, 0xFF, 0xFF, 0xFF, 0xFF, 0xFF, 0x7F, 0x3F,
;0x3F, 0x1F, 0x1F, 0x0F, 0x07, 0x07, 0x03, 0x01,
;0x00, 0x00, 0x00, 0x00, 0x00, 0x00, 0x00, 0x00,
;0x00, 0x00, 0x00, 0x00, 0x00, 0x00, 0x00, 0x00,
;0x00, 0x00, 0x00, 0x00, 0x00, 0x00, 0x00, 0x00,
;0x00, 0x00, 0x00, 0x00, 0x00, 0x00, 0x00, 0x00,
;0x00, 0x00, 0x00, 0x00, 0x00, 0x00, 0x00, 0x00,
;0x00, 0x00, 0x00, 0x00, 0x00, 0x00, 0x00, 0x00,
;0x00, 0x00, 0x00, 0x00, 0x00, 0x00, 0x00, 0x00,
;0x00, 0x00, 0x00, 0x00, 0x00, 0x00, 0x01, 0x01,
;0x03, 0x03, 0x03, 0x07, 0x07, 0x07, 0x07, 0x0F,
;0x0F, 0x0F, 0x0F, 0x0F, 0x1F, 0x1F, 0x1F, 0x1F,
;0x1F, 0x1F, 0x1F, 0x1F, 0x1F, 0x1F, 0x1F, 0x1F,
;0x1F, 0x1F, 0x1F, 0x1F, 0x1F, 0x0F, 0x0F, 0x0F,
;0x0F, 0x0F, 0x07, 0x07, 0x07, 0x07, 0x03, 0x03,
;0x03, 0x01, 0x01, 0x00, 0x00, 0x00, 0x00, 0x00,
;0x00, 0x00, 0x00, 0x00, 0x00, 0x00, 0x00, 0x00,
;0x00, 0x00, 0x00, 0x00, 0x00, 0x00, 0x00, 0x00,
;0x00, 0x00, 0x00, 0x00, 0x00, 0x00, 0x00, 0x00,
;0x00, 0x00, 0x00, 0x00, 0x00, 0x00, 0x00, 0x00,
;#endif
;};
;
;#include "includes/taleb.c"
;/****************************************************************************
;Image data created by the LCD Vision V1.05 font & image editor/converter
;(C) Copyright 2011-2013 Pavel Haiduc, HP InfoTech s.r.l.
;http://www.hpinfotech.com
;
;Graphic LCD controller: T6963C 240x128 CG Font 8x8 (FS=0)
;Image width: 120 pixels
;Image height: 120 pixels
;Color depth: 1 bits/pixel
;Imported image file name: taleb0.png
;
;Exported monochrome image data size:
;1804 bytes for displays organized as horizontal rows of bytes
;1804 bytes for displays organized as rows of vertical bytes.
;****************************************************************************/
;
;flash unsigned char taleb[]=
;{
;/* Image width: 120 pixels */
;0x78, 0x00,
;/* Image height: 120 pixels */
;0x78, 0x00,
;#ifndef _GLCD_DATA_BYTEY_
;/* Image data for monochrome displays organized
;   as horizontal rows of bytes */
;0x00, 0x00, 0x00, 0x00, 0x00, 0x00, 0x00, 0x00,
;0x00, 0x00, 0x00, 0x00, 0x00, 0x00, 0x00, 0x00,
;0x00, 0x00, 0x00, 0x00, 0x00, 0x00, 0x00, 0x00,
;0x00, 0x00, 0x00, 0x00, 0x00, 0x00, 0x00, 0x00,
;0x00, 0x00, 0x00, 0x00, 0x00, 0x00, 0x00, 0x00,
;0x00, 0x00, 0x00, 0x00, 0x00, 0x00, 0x00, 0x00,
;0x00, 0x00, 0x00, 0x00, 0x00, 0x00, 0x00, 0x00,
;0x00, 0x00, 0x00, 0x00, 0x00, 0x00, 0x00, 0x00,
;0x00, 0x00, 0x00, 0x00, 0x00, 0x00, 0x00, 0x00,
;0x00, 0x00, 0x00, 0x00, 0x00, 0x00, 0x00, 0x00,
;0x00, 0x00, 0x00, 0x00, 0x00, 0x00, 0x00, 0x00,
;0x00, 0x00, 0x00, 0x00, 0x00, 0x00, 0x00, 0x00,
;0x00, 0x00, 0x00, 0x00, 0x00, 0x00, 0x00, 0x00,
;0x00, 0x00, 0x00, 0x00, 0x00, 0x00, 0x00, 0x00,
;0x00, 0x00, 0x00, 0x00, 0x00, 0x00, 0x00, 0x00,
;0x00, 0x00, 0x00, 0x00, 0x00, 0x00, 0x00, 0x00,
;0x00, 0x00, 0x00, 0x00, 0x00, 0x38, 0x00, 0x00,
;0xF8, 0x03, 0x00, 0x00, 0x00, 0x00, 0x00, 0x00,
;0x00, 0x00, 0x00, 0x00, 0x38, 0x00, 0x00, 0xF8,
;0x07, 0x00, 0x00, 0x00, 0x00, 0x00, 0x00, 0x00,
;0x00, 0x00, 0x00, 0x38, 0x00, 0x00, 0xF8, 0x0F,
;0x00, 0x00, 0x00, 0x00, 0x00, 0x00, 0x00, 0x00,
;0x00, 0x00, 0x38, 0x00, 0x00, 0x38, 0xEF, 0xF7,
;0xC7, 0xDF, 0xFF, 0xE7, 0xFF, 0xE3, 0xFF, 0xE3,
;0xC7, 0x3F, 0x00, 0x00, 0x38, 0xEF, 0xFF, 0xEF,
;0xDF, 0xFF, 0xEF, 0xFF, 0xE7, 0xFF, 0xF3, 0xEF,
;0x3F, 0x00, 0x00, 0xB8, 0xEF, 0x7F, 0xEF, 0xCE,
;0x7F, 0xEF, 0xFF, 0xE7, 0xFF, 0x73, 0xEF, 0x3F,
;0x00, 0x00, 0xF8, 0xE7, 0x38, 0xEE, 0xCE, 0x83,
;0xEF, 0x39, 0xE7, 0x9C, 0xFB, 0xEF, 0x3C, 0x00,
;0x00, 0xF8, 0xE3, 0x38, 0xEE, 0xCF, 0xF1, 0xEF,
;0x39, 0xE7, 0x9C, 0xFB, 0xEF, 0x38, 0x00, 0x00,
;0x38, 0xE0, 0x38, 0xEE, 0xCF, 0xF1, 0xEF, 0x39,
;0xE7, 0x9C, 0xFB, 0xEF, 0x38, 0x00, 0x00, 0x38,
;0xE0, 0x78, 0xEF, 0xC0, 0x71, 0xEE, 0x39, 0xE7,
;0x9C, 0x7B, 0xE0, 0x3D, 0x00, 0x00, 0x38, 0xE0,
;0xF8, 0xEF, 0xDF, 0xF1, 0xEF, 0x39, 0xE7, 0x9C,
;0xF3, 0xEF, 0x3F, 0x00, 0x00, 0x38, 0xE0, 0xF0,
;0xE7, 0xDF, 0xF1, 0xEF, 0x39, 0xE7, 0x9C, 0xF3,
;0xCF, 0x3F, 0x00, 0x00, 0x00, 0x00, 0xC0, 0xF1,
;0x1C, 0xE0, 0x00, 0x00, 0x00, 0x00, 0xC0, 0x83,
;0x03, 0x00, 0x00, 0x00, 0x00, 0x00, 0xF0, 0x1F,
;0x00, 0x00, 0x00, 0x00, 0x00, 0x00, 0x00, 0x00,
;0x00, 0x00, 0x00, 0x00, 0x00, 0xF0, 0x1F, 0x00,
;0x00, 0x00, 0x00, 0x00, 0x00, 0x00, 0x00, 0x00,
;0x00, 0x00, 0x00, 0x00, 0xC0, 0x07, 0x00, 0x00,
;0x00, 0x00, 0x00, 0x00, 0x00, 0x00, 0x00, 0x00,
;0x00, 0x00, 0x00, 0x00, 0x00, 0x00, 0x00, 0x00,
;0x00, 0x00, 0x00, 0x00, 0x00, 0x00, 0x00, 0x00,
;0x00, 0x00, 0x00, 0x00, 0x00, 0x00, 0x00, 0x00,
;0x00, 0x00, 0x00, 0x00, 0x00, 0x00, 0x00, 0x00,
;0x00, 0x00, 0x00, 0x00, 0x00, 0x00, 0x00, 0x00,
;0x00, 0x00, 0x00, 0x00, 0x00, 0x00, 0x00, 0x00,
;0x00, 0x00, 0x00, 0x00, 0x00, 0x00, 0x00, 0x00,
;0x00, 0x00, 0x00, 0x00, 0x00, 0x00, 0x00, 0x00,
;0x00, 0x00, 0x00, 0x00, 0x00, 0x00, 0x00, 0x00,
;0x00, 0x00, 0x00, 0x00, 0x00, 0x00, 0x00, 0x00,
;0x00, 0x00, 0x00, 0x00, 0x00, 0x00, 0x00, 0x00,
;0x00, 0x00, 0x00, 0x00, 0x00, 0x00, 0x00, 0x00,
;0x00, 0x00, 0x00, 0x00, 0x00, 0x00, 0x00, 0x00,
;0x00, 0x00, 0x00, 0x00, 0x00, 0x00, 0x00, 0x00,
;0x00, 0x00, 0x00, 0x00, 0x00, 0x00, 0x00, 0x00,
;0x00, 0x00, 0x00, 0x00, 0x00, 0xF8, 0x03, 0x00,
;0x00, 0x00, 0x00, 0x00, 0x00, 0x00, 0x00, 0x00,
;0x00, 0x00, 0x00, 0x00, 0xF8, 0x07, 0x00, 0x00,
;0x00, 0x00, 0x00, 0x00, 0x00, 0x00, 0x00, 0x00,
;0x00, 0x00, 0x00, 0xF8, 0x0F, 0x00, 0x00, 0x00,
;0x00, 0x00, 0x00, 0x00, 0x00, 0x00, 0x00, 0x00,
;0x00, 0x00, 0x38, 0x7F, 0x1C, 0x00, 0x00, 0x00,
;0x00, 0x00, 0x00, 0x00, 0x00, 0x00, 0x00, 0x00,
;0x00, 0xB8, 0xF7, 0x1C, 0x00, 0x00, 0x00, 0x00,
;0x00, 0x00, 0x00, 0x00, 0x00, 0x00, 0x00, 0x00,
;0xF8, 0xE7, 0x1C, 0x00, 0x00, 0x00, 0x00, 0x00,
;0x00, 0x00, 0x00, 0x00, 0x00, 0x00, 0x00, 0xF8,
;0xEF, 0x1F, 0x00, 0x00, 0x00, 0x00, 0x00, 0x00,
;0x00, 0x00, 0x00, 0x00, 0x00, 0x00, 0x38, 0xEF,
;0x0F, 0x00, 0x00, 0x00, 0x00, 0x00, 0x00, 0x00,
;0x00, 0x00, 0x00, 0x00, 0x00, 0x38, 0xCE, 0x0F,
;0x00, 0x00, 0x00, 0x00, 0x00, 0x00, 0x00, 0x00,
;0x00, 0x00, 0x00, 0x00, 0x38, 0xCF, 0x0F, 0x00,
;0x00, 0x00, 0x00, 0x00, 0x00, 0x00, 0x00, 0x00,
;0x00, 0x00, 0x00, 0xF8, 0xCF, 0x07, 0x00, 0x00,
;0x00, 0x00, 0x00, 0x00, 0x00, 0x00, 0x00, 0x00,
;0x00, 0x00, 0xF8, 0x87, 0x07, 0x00, 0x00, 0x00,
;0x00, 0x00, 0x00, 0x00, 0x00, 0x00, 0x00, 0x00,
;0x00, 0x00, 0x80, 0x07, 0x00, 0x00, 0x00, 0x00,
;0x00, 0x00, 0x00, 0x00, 0x00, 0x00, 0x00, 0x00,
;0x00, 0x80, 0x03, 0x00, 0x00, 0x00, 0x00, 0x00,
;0x00, 0x00, 0x00, 0x00, 0x00, 0x00, 0x00, 0x00,
;0xC0, 0x03, 0x00, 0x00, 0x00, 0x00, 0x00, 0x00,
;0x00, 0x00, 0x00, 0x00, 0x00, 0x00, 0x00, 0xC0,
;0x01, 0x00, 0x00, 0x00, 0x00, 0x00, 0x00, 0x00,
;0x00, 0x00, 0x00, 0x00, 0x00, 0x00, 0x00, 0x00,
;0x00, 0x00, 0x00, 0x00, 0x00, 0x00, 0x00, 0x00,
;0x00, 0x00, 0x00, 0x00, 0x00, 0x00, 0x00, 0x00,
;0x00, 0x00, 0x00, 0x00, 0x00, 0x00, 0x00, 0x00,
;0x00, 0x00, 0x00, 0x00, 0x00, 0x00, 0x00, 0x00,
;0x00, 0x00, 0x00, 0x00, 0x00, 0x00, 0x00, 0x00,
;0x00, 0x00, 0x00, 0x00, 0x00, 0x00, 0x00, 0x00,
;0x00, 0x00, 0x00, 0x00, 0x00, 0x00, 0x00, 0x00,
;0x00, 0xFE, 0xFF, 0x3F, 0x00, 0x00, 0x00, 0x00,
;0x00, 0x00, 0x00, 0x00, 0x00, 0x00, 0x00, 0x00,
;0xFF, 0xFF, 0x3F, 0x00, 0x00, 0x00, 0x00, 0x00,
;0x00, 0x00, 0x00, 0x00, 0x00, 0x00, 0x00, 0xFF,
;0xFF, 0x7F, 0x00, 0x00, 0x00, 0x00, 0x00, 0x00,
;0x00, 0x00, 0x00, 0x00, 0x00, 0x00, 0xFF, 0xFF,
;0x7F, 0x00, 0x00, 0x00, 0x00, 0x00, 0x00, 0x00,
;0x00, 0x00, 0x00, 0x00, 0x00, 0xFF, 0xFF, 0x7F,
;0x00, 0x00, 0x00, 0x00, 0x00, 0x00, 0x00, 0x00,
;0x00, 0x00, 0x00, 0x00, 0xFF, 0xFF, 0x3F, 0x00,
;0x00, 0x00, 0x00, 0x00, 0x00, 0x00, 0x00, 0x00,
;0x00, 0x00, 0x00, 0xFF, 0x01, 0x00, 0x00, 0x00,
;0x00, 0x00, 0x00, 0x00, 0x00, 0x00, 0x00, 0x00,
;0x00, 0x00, 0xFE, 0x01, 0x00, 0x00, 0x00, 0x00,
;0x00, 0x00, 0x00, 0x00, 0x00, 0x00, 0x00, 0x00,
;0x00, 0xFC, 0x03, 0x00, 0x00, 0x00, 0x00, 0x00,
;0x00, 0x00, 0x00, 0x00, 0x00, 0x00, 0x00, 0x00,
;0xFC, 0x07, 0x00, 0x00, 0x00, 0x00, 0x00, 0x00,
;0x00, 0x00, 0x00, 0x00, 0x00, 0x00, 0x00, 0xF8,
;0x0F, 0x00, 0x00, 0x00, 0x00, 0x00, 0x00, 0x00,
;0x00, 0x00, 0x00, 0x00, 0x00, 0x00, 0xF0, 0x1F,
;0x00, 0x00, 0x00, 0x00, 0x00, 0x00, 0x00, 0x00,
;0x00, 0x00, 0x00, 0x00, 0x00, 0xE0, 0x3F, 0x00,
;0x00, 0x00, 0x00, 0x00, 0x00, 0x00, 0x00, 0x00,
;0x00, 0x00, 0x00, 0x00, 0xC0, 0x7F, 0x00, 0x00,
;0x00, 0x00, 0x00, 0x00, 0x00, 0x00, 0x00, 0x00,
;0x00, 0x00, 0x00, 0x80, 0x7F, 0x00, 0x00, 0x00,
;0x00, 0x00, 0x00, 0x00, 0x00, 0x00, 0x00, 0x00,
;0x00, 0x00, 0x80, 0xFF, 0x00, 0x00, 0x00, 0x00,
;0x00, 0x00, 0x00, 0x00, 0x00, 0x00, 0x00, 0x00,
;0x00, 0x00, 0xFF, 0x01, 0x00, 0x00, 0x00, 0x00,
;0x00, 0x00, 0x00, 0x00, 0x00, 0x00, 0x00, 0x00,
;0x00, 0xFE, 0x03, 0x00, 0x00, 0x00, 0x00, 0x00,
;0x00, 0x00, 0x00, 0x00, 0x00, 0x00, 0x00, 0x00,
;0xFC, 0x07, 0x00, 0x00, 0x00, 0x00, 0x00, 0x00,
;0x00, 0x00, 0x00, 0x00, 0x00, 0x00, 0x00, 0xF8,
;0x07, 0x00, 0x00, 0x00, 0x00, 0x00, 0x00, 0x00,
;0x00, 0x00, 0x00, 0x00, 0x00, 0x00, 0xF8, 0x07,
;0x00, 0x00, 0x00, 0x00, 0x00, 0x00, 0x00, 0x00,
;0x00, 0x00, 0x00, 0x00, 0x00, 0xFC, 0x07, 0x00,
;0x00, 0x00, 0x00, 0x00, 0x00, 0x00, 0x00, 0x00,
;0x00, 0x00, 0x00, 0x00, 0xFE, 0x03, 0x00, 0x00,
;0x00, 0x00, 0x00, 0x00, 0x00, 0x00, 0x00, 0x00,
;0x00, 0x00, 0x00, 0xFE, 0x01, 0x00, 0x00, 0x00,
;0x00, 0x00, 0x00, 0x00, 0x00, 0x00, 0x00, 0x00,
;0x00, 0x00, 0xFF, 0x00, 0x00, 0x00, 0x00, 0x00,
;0x00, 0x00, 0x00, 0x00, 0x00, 0x00, 0x00, 0x00,
;0x80, 0x7F, 0x00, 0x00, 0x00, 0x00, 0x00, 0x00,
;0x00, 0x00, 0x00, 0x00, 0x00, 0x00, 0x00, 0xC0,
;0x7F, 0x00, 0x00, 0x00, 0x00, 0x00, 0x00, 0x00,
;0x00, 0x00, 0x00, 0x00, 0x00, 0x00, 0xE0, 0x3F,
;0x00, 0x00, 0x00, 0x00, 0x00, 0x00, 0x00, 0x00,
;0x00, 0x00, 0x00, 0x00, 0x00, 0xF0, 0x1F, 0x00,
;0x00, 0x00, 0x00, 0x00, 0x00, 0x00, 0x00, 0x00,
;0x00, 0x00, 0x00, 0x00, 0xF0, 0x0F, 0x00, 0x00,
;0x00, 0x00, 0x00, 0x00, 0x00, 0x00, 0x00, 0x00,
;0x00, 0x00, 0x00, 0xF8, 0x07, 0x00, 0x00, 0x00,
;0x00, 0x00, 0x00, 0x00, 0x00, 0x00, 0x00, 0x00,
;0x00, 0x00, 0xFC, 0x03, 0x00, 0x00, 0x00, 0x00,
;0x00, 0x00, 0x00, 0x00, 0x00, 0x00, 0x00, 0x00,
;0x00, 0xFE, 0x03, 0x00, 0x00, 0x00, 0x00, 0x00,
;0x00, 0x00, 0x00, 0x00, 0x00, 0x00, 0x00, 0x00,
;0xFF, 0x01, 0x00, 0x00, 0x00, 0x00, 0x00, 0x00,
;0x00, 0x00, 0x00, 0x00, 0x00, 0x00, 0x00, 0xFF,
;0x00, 0x00, 0x00, 0x00, 0x00, 0x00, 0x00, 0x00,
;0x00, 0x00, 0x00, 0x00, 0x00, 0x00, 0xFF, 0xFF,
;0x7F, 0x00, 0x00, 0x00, 0x00, 0x00, 0x00, 0x00,
;0x00, 0x00, 0x00, 0x00, 0x00, 0xFF, 0xFF, 0x7F,
;0x00, 0x00, 0x00, 0x00, 0x00, 0x00, 0x00, 0x00,
;0x00, 0x00, 0x00, 0x00, 0xFF, 0xFF, 0x7F, 0x00,
;0x00, 0x00, 0x00, 0x00, 0x00, 0x00, 0x00, 0x00,
;0x00, 0x00, 0x00, 0xFF, 0xFF, 0x7F, 0x00, 0x00,
;0x00, 0x00, 0x00, 0x00, 0x00, 0x00, 0x00, 0x00,
;0x00, 0x00, 0xFF, 0xFF, 0x7F, 0x00, 0x00, 0x00,
;0x00, 0x00, 0x00, 0x00, 0x00, 0x00, 0x00, 0x00,
;0x00, 0xFF, 0xFF, 0x7F, 0x00, 0x00, 0x00, 0x00,
;0x00, 0x00, 0x00, 0x00, 0x00, 0x00, 0x00, 0x00,
;0x00, 0x00, 0x00, 0x00, 0x00, 0x00, 0x00, 0x00,
;0x00, 0x00, 0x00, 0x00, 0x00, 0x00, 0x00, 0x00,
;0x00, 0x00, 0x00, 0x00, 0x00, 0x00, 0x00, 0x00,
;0x00, 0x00, 0x00, 0x00, 0x00, 0x00, 0x00, 0x00,
;0x00, 0x00, 0x00, 0x00, 0x00, 0x00, 0x00, 0x00,
;0x00, 0x00, 0x00, 0x00, 0x00, 0x00, 0x00, 0x00,
;0x00, 0x00, 0x00, 0x00, 0x00, 0x00, 0x00, 0x00,
;0x00, 0x00, 0x00, 0x00, 0x00, 0x00, 0x00, 0x00,
;0x00, 0x00, 0x00, 0x00, 0x00, 0x00, 0x00, 0x00,
;0x00, 0x00, 0x00, 0x00, 0x00, 0x00, 0x00, 0x00,
;0x00, 0x00, 0x00, 0x00, 0x00, 0x07, 0x0E, 0x70,
;0x00, 0x00, 0x00, 0x00, 0x00, 0x00, 0x00, 0x00,
;0xC3, 0x3C, 0x00, 0x00, 0x0F, 0x0F, 0xFC, 0x00,
;0x00, 0x00, 0x00, 0x00, 0x00, 0x00, 0x00, 0xE7,
;0xFC, 0x01, 0x00, 0x1F, 0x0F, 0xFC, 0x00, 0x00,
;0x00, 0x00, 0x00, 0x00, 0x00, 0x00, 0xE7, 0xFC,
;0x01, 0x00, 0x9F, 0x0F, 0x1C, 0x00, 0x00, 0x00,
;0x00, 0x00, 0x00, 0x00, 0x00, 0xE7, 0xDC, 0x03,
;0x00, 0x9F, 0x0F, 0x3C, 0x00, 0x00, 0x00, 0x00,
;0x00, 0x00, 0x00, 0x00, 0xFF, 0xDC, 0x03, 0x00,
;0xFB, 0x0F, 0xFC, 0x00, 0x00, 0x00, 0x00, 0x00,
;0x00, 0x00, 0x00, 0xFF, 0xFC, 0x01, 0x00, 0xFB,
;0x0F, 0xF8, 0x01, 0x00, 0x00, 0x00, 0x00, 0x00,
;0x00, 0x00, 0xFF, 0xFC, 0x01, 0x00, 0xFB, 0x0F,
;0xE0, 0x01, 0x00, 0x00, 0x00, 0x00, 0x00, 0x00,
;0x00, 0xE7, 0xFC, 0x00, 0x00, 0xF3, 0xCE, 0xC6,
;0x01, 0x00, 0x00, 0x00, 0x00, 0x00, 0x00, 0x00,
;0xE7, 0x1C, 0x00, 0x00, 0xF3, 0xCE, 0xFF, 0x01,
;0x00, 0x00, 0x00, 0x00, 0x00, 0x00, 0x00, 0xE7,
;0x1C, 0x00, 0x00, 0xF3, 0xCE, 0xFF, 0x00, 0x00,
;0x00, 0x00, 0x00, 0x00, 0x00, 0x00, 0xE7, 0x1C,
;0x00, 0x00, 0x00, 0xC0, 0x38, 0x00, 0x00, 0x00,
;0x00, 0x00, 0x00, 0x00, 0x00, 0x00, 0x00, 0x00,
;0x00, 0x00, 0x00, 0x00, 0x00, 0x00, 0x00, 0x00,
;0x00, 0x00, 0x00, 0x00, 0x00, 0x00, 0x00, 0x00,
;0x00, 0x00, 0x00, 0x00, 0x00, 0x00, 0x00, 0x00,
;0x00, 0x00, 0x00, 0x00, 0x00, 0x00, 0x00, 0x00,
;0x00, 0x00, 0x00, 0x00, 0x00, 0x00, 0x00, 0x00,
;0x00, 0x00, 0x00, 0x00, 0x00, 0x00, 0x00, 0x00,
;0x00, 0x00, 0x00, 0x00, 0x00, 0x00, 0x00, 0x00,
;0x00, 0x00, 0x00, 0x00, 0x00, 0x00, 0x00, 0x00,
;0x00, 0x00, 0x00, 0x00, 0x00, 0x00, 0x00, 0x00,
;0x00, 0x00, 0x00, 0x00, 0x00, 0x00, 0x00, 0x00,
;0x00, 0x00, 0x00, 0x00, 0x00, 0x00, 0x00, 0x00,
;0x00, 0x00, 0x00, 0x00, 0x00, 0x00, 0x00, 0x00,
;0x00, 0x00, 0x00, 0x00, 0x00, 0x00, 0x00, 0x00,
;0x00, 0x00, 0x00, 0x00, 0x00, 0x00, 0x00, 0x00,
;0x00, 0x00, 0x00, 0x00, 0x00, 0x00, 0x00, 0x00,
;#else
;/* Image data for monochrome displays organized
;   as rows of vertical bytes */
;0x00, 0x00, 0x00, 0x00, 0x00, 0x00, 0x00, 0x00,
;0x00, 0x00, 0x00, 0x00, 0x00, 0x00, 0x00, 0x00,
;0x00, 0x00, 0x00, 0x00, 0x00, 0x00, 0x00, 0x00,
;0x00, 0x00, 0x00, 0x00, 0x00, 0x00, 0x00, 0x00,
;0x00, 0x00, 0x00, 0x00, 0x00, 0x00, 0x00, 0x00,
;0x00, 0x00, 0x00, 0x00, 0x00, 0x00, 0x00, 0x00,
;0x00, 0x00, 0x00, 0x00, 0x00, 0x00, 0x00, 0x00,
;0x00, 0x00, 0x00, 0x00, 0x00, 0x00, 0x00, 0x00,
;0x00, 0x00, 0x00, 0x00, 0x00, 0x00, 0x00, 0x00,
;0x00, 0x00, 0x00, 0x00, 0x00, 0x00, 0x00, 0x00,
;0x00, 0x00, 0x00, 0x00, 0x00, 0x00, 0x00, 0x00,
;0x00, 0x00, 0x00, 0x00, 0x00, 0x00, 0x00, 0x00,
;0x00, 0x00, 0x00, 0x00, 0x00, 0x00, 0x00, 0x00,
;0x00, 0x00, 0x00, 0x00, 0x00, 0x00, 0x00, 0x00,
;0x00, 0x00, 0x00, 0x00, 0x00, 0x00, 0x00, 0x00,
;0x00, 0x00, 0x00, 0x00, 0x00, 0x00, 0x00, 0x00,
;0x00, 0x00, 0x00, 0xFE, 0xFE, 0xFE, 0x8E, 0xCE,
;0xFE, 0xFE, 0xFC, 0x78, 0x00, 0xF0, 0xF0, 0xF0,
;0x70, 0x70, 0x70, 0xE0, 0xF0, 0xF0, 0x70, 0x30,
;0x70, 0xF0, 0xF0, 0xE0, 0x00, 0xE0, 0xF0, 0xF0,
;0x30, 0xF0, 0xF0, 0xF0, 0x30, 0x00, 0xF0, 0xF0,
;0xF0, 0xF0, 0x70, 0x70, 0x70, 0x70, 0x70, 0xB0,
;0xF0, 0xF0, 0xF0, 0xE0, 0x00, 0xF0, 0xF0, 0xF0,
;0xF0, 0x70, 0x70, 0xF0, 0xF0, 0xF0, 0x70, 0x70,
;0xF0, 0xF0, 0xE0, 0x00, 0x00, 0xF0, 0xF0, 0xF0,
;0x70, 0x70, 0xF0, 0xF0, 0xF0, 0x70, 0x70, 0xF0,
;0xF0, 0xF0, 0x00, 0x80, 0xE0, 0xF0, 0xF0, 0xB0,
;0xF0, 0xF0, 0xF0, 0xE0, 0x00, 0xE0, 0xF0, 0xF0,
;0x70, 0x70, 0xF0, 0xFF, 0xFF, 0xFF, 0x00, 0x00,
;0x00, 0x00, 0x00, 0x00, 0x00, 0x00, 0x00, 0x00,
;0x00, 0x00, 0x00, 0x00, 0x00, 0x00, 0x00, 0x00,
;0x00, 0x00, 0x00, 0x1F, 0x1F, 0x1F, 0x01, 0x01,
;0x01, 0x01, 0x00, 0x00, 0x00, 0x1F, 0x1F, 0x1F,
;0x00, 0x00, 0x00, 0x0F, 0x1F, 0x1F, 0x3C, 0x38,
;0x3C, 0x1F, 0x1F, 0x0F, 0xE0, 0xFF, 0xFF, 0xFF,
;0xDB, 0xDB, 0xFB, 0xFB, 0xF8, 0x00, 0x1F, 0x1F,
;0x1F, 0x00, 0x00, 0x00, 0x1F, 0x3F, 0x3F, 0x3B,
;0x1B, 0x1F, 0x1F, 0x1F, 0x00, 0x1F, 0x1F, 0x1F,
;0x1F, 0x00, 0x00, 0x1F, 0x1F, 0x1F, 0x00, 0x00,
;0x1F, 0x1F, 0x1F, 0x00, 0x00, 0x1F, 0x1F, 0x1F,
;0x00, 0x00, 0x1F, 0x1F, 0x1F, 0x00, 0x00, 0x1F,
;0x1F, 0x1F, 0x00, 0x07, 0x1F, 0x1F, 0x3F, 0x3B,
;0x3B, 0x3B, 0x1B, 0x1B, 0x00, 0x0F, 0x1F, 0x3F,
;0x3C, 0x38, 0x1C, 0x1F, 0x1F, 0x1F, 0x00, 0x00,
;0x00, 0x00, 0x00, 0x00, 0x00, 0x00, 0x00, 0x00,
;0x00, 0x00, 0x00, 0x00, 0x00, 0x00, 0x00, 0x00,
;0x00, 0x00, 0x00, 0x00, 0x00, 0x00, 0x00, 0x00,
;0x00, 0x00, 0x00, 0x00, 0x00, 0x00, 0x00, 0x00,
;0x00, 0x00, 0x00, 0x00, 0x00, 0x00, 0x00, 0x00,
;0x00, 0x00, 0x00, 0x00, 0x00, 0x00, 0x01, 0x01,
;0x01, 0x01, 0x01, 0x00, 0x00, 0x00, 0x00, 0x00,
;0x00, 0x00, 0x00, 0x00, 0x00, 0x00, 0x00, 0x00,
;0x00, 0x00, 0x00, 0x00, 0x00, 0x00, 0x00, 0x00,
;0x00, 0x00, 0x00, 0x00, 0x00, 0x00, 0x00, 0x00,
;0x00, 0x00, 0x00, 0x00, 0x00, 0x00, 0x00, 0x00,
;0x00, 0x00, 0x00, 0x00, 0x00, 0x00, 0x00, 0x00,
;0x00, 0x00, 0x00, 0x00, 0x00, 0x00, 0x00, 0x00,
;0x00, 0x00, 0x00, 0x00, 0x00, 0x00, 0x00, 0x00,
;0x00, 0x00, 0x00, 0x00, 0x00, 0x00, 0x00, 0x00,
;0x00, 0x00, 0x00, 0x00, 0x00, 0x00, 0x00, 0x00,
;0x00, 0x00, 0x00, 0x00, 0x00, 0x00, 0x00, 0x00,
;0x00, 0x00, 0x00, 0x00, 0x00, 0x00, 0x00, 0x00,
;0x00, 0x00, 0x00, 0x00, 0x00, 0x00, 0x00, 0x00,
;0x00, 0x00, 0x00, 0x00, 0x00, 0x00, 0x00, 0x00,
;0x00, 0x00, 0x00, 0x00, 0x00, 0x00, 0x00, 0x00,
;0x00, 0x00, 0x00, 0x00, 0x00, 0x00, 0x00, 0x00,
;0x00, 0x00, 0x00, 0xFE, 0xFE, 0xFE, 0xCE, 0xEE,
;0xFE, 0xFE, 0xFC, 0x98, 0x30, 0xF0, 0xF0, 0xE0,
;0x80, 0x80, 0xF0, 0xF0, 0xF0, 0x00, 0x00, 0x00,
;0x00, 0x00, 0x00, 0x00, 0x00, 0x00, 0x00, 0x00,
;0x00, 0x00, 0x00, 0x00, 0x00, 0x00, 0x00, 0x00,
;0x00, 0x00, 0x00, 0x00, 0x00, 0x00, 0x00, 0x00,
;0x00, 0x00, 0x00, 0x00, 0x00, 0x00, 0x00, 0x00,
;0x00, 0x00, 0x00, 0x00, 0x00, 0x00, 0x00, 0x00,
;0x00, 0x00, 0x00, 0x00, 0x00, 0x00, 0x00, 0x00,
;0x00, 0x00, 0x00, 0x00, 0x00, 0x00, 0x00, 0x00,
;0x00, 0x00, 0x00, 0x00, 0x00, 0x00, 0x00, 0x00,
;0x00, 0x00, 0x00, 0x00, 0x00, 0x00, 0x00, 0x00,
;0x00, 0x00, 0x00, 0x00, 0x00, 0x00, 0x00, 0x00,
;0x00, 0x00, 0x00, 0x00, 0x00, 0x00, 0x00, 0x00,
;0x00, 0x00, 0x00, 0x00, 0x00, 0x00, 0x00, 0x00,
;0x00, 0x00, 0x00, 0x1F, 0x1F, 0x1F, 0x18, 0x18,
;0x1D, 0x1F, 0x1F, 0x0F, 0x00, 0x01, 0x8F, 0xFF,
;0xFF, 0xFF, 0x3F, 0x07, 0x00, 0x00, 0x00, 0x00,
;0x00, 0x00, 0x00, 0x00, 0x00, 0x00, 0x00, 0x00,
;0x00, 0x00, 0x00, 0x00, 0x00, 0x00, 0x00, 0x00,
;0x00, 0x00, 0x00, 0x00, 0x00, 0x00, 0x00, 0x00,
;0x00, 0x00, 0x00, 0x00, 0x00, 0x00, 0x00, 0x00,
;0x00, 0x00, 0x00, 0x00, 0x00, 0x00, 0x00, 0x00,
;0x00, 0x00, 0x00, 0x00, 0x00, 0x00, 0x00, 0x00,
;0x00, 0x00, 0x00, 0x00, 0x00, 0x00, 0x00, 0x00,
;0x00, 0x00, 0x00, 0x00, 0x00, 0x00, 0x00, 0x00,
;0x00, 0x00, 0x00, 0x00, 0x00, 0x00, 0x00, 0x00,
;0x00, 0x00, 0x00, 0x00, 0x00, 0x00, 0x00, 0x00,
;0x00, 0x00, 0x00, 0x00, 0x00, 0x00, 0x00, 0x00,
;0x00, 0x00, 0x00, 0x00, 0x00, 0x00, 0x00, 0x00,
;0xC0, 0xE0, 0xE0, 0xE0, 0xE0, 0xE0, 0xE0, 0xE0,
;0xE0, 0xE0, 0xE0, 0xE0, 0xE0, 0xE0, 0xE1, 0xE1,
;0xE1, 0xE0, 0xE0, 0xE0, 0xE0, 0xE0, 0x80, 0x00,
;0x00, 0x00, 0x00, 0x00, 0x00, 0x00, 0x00, 0x00,
;0x00, 0x00, 0x00, 0x00, 0x00, 0x00, 0x00, 0x00,
;0x00, 0x00, 0x00, 0x00, 0x00, 0x00, 0x00, 0x00,
;0x00, 0x00, 0x00, 0x00, 0x00, 0x00, 0x00, 0x00,
;0x00, 0x00, 0x00, 0x00, 0x00, 0x00, 0x00, 0x00,
;0x00, 0x00, 0x00, 0x00, 0x00, 0x00, 0x00, 0x00,
;0x00, 0x00, 0x00, 0x00, 0x00, 0x00, 0x00, 0x00,
;0x00, 0x00, 0x00, 0x00, 0x00, 0x00, 0x00, 0x00,
;0x00, 0x00, 0x00, 0x00, 0x00, 0x00, 0x00, 0x00,
;0x00, 0x00, 0x00, 0x00, 0x00, 0x00, 0x00, 0x00,
;0x00, 0x00, 0x00, 0x00, 0x00, 0x00, 0x00, 0x00,
;0x00, 0x00, 0x00, 0x00, 0x00, 0x00, 0x00, 0x00,
;0x0F, 0x1F, 0x7F, 0xFF, 0xFF, 0xFF, 0xFF, 0xFF,
;0xFF, 0xE7, 0xC7, 0x87, 0x07, 0x07, 0x07, 0x07,
;0x07, 0x07, 0x07, 0x07, 0x07, 0x07, 0x03, 0x00,
;0x00, 0x00, 0x00, 0x00, 0x00, 0x00, 0x00, 0x00,
;0x00, 0x00, 0x00, 0x00, 0x00, 0x00, 0x00, 0x00,
;0x00, 0x00, 0x00, 0x00, 0x00, 0x00, 0x00, 0x00,
;0x00, 0x00, 0x00, 0x00, 0x00, 0x00, 0x00, 0x00,
;0x00, 0x00, 0x00, 0x00, 0x00, 0x00, 0x00, 0x00,
;0x00, 0x00, 0x00, 0x00, 0x00, 0x00, 0x00, 0x00,
;0x00, 0x00, 0x00, 0x00, 0x00, 0x00, 0x00, 0x00,
;0x00, 0x00, 0x00, 0x00, 0x00, 0x00, 0x00, 0x00,
;0x00, 0x00, 0x00, 0x00, 0x00, 0x00, 0x00, 0x00,
;0x00, 0x00, 0x00, 0x00, 0x00, 0x00, 0x00, 0x00,
;0x00, 0x00, 0x00, 0x00, 0x00, 0x00, 0x00, 0x00,
;0x00, 0x00, 0x00, 0x00, 0x00, 0x00, 0x00, 0x00,
;0x00, 0x00, 0x00, 0x00, 0x01, 0x03, 0x07, 0x1F,
;0x3F, 0x7F, 0xFF, 0xFF, 0xFF, 0xFE, 0xFC, 0xF0,
;0xE0, 0xC0, 0x80, 0x00, 0x00, 0x00, 0x00, 0x00,
;0x00, 0x00, 0x00, 0x00, 0x00, 0x00, 0x00, 0x00,
;0x00, 0x00, 0x00, 0x00, 0x00, 0x00, 0x00, 0x00,
;0x00, 0x00, 0x00, 0x00, 0x00, 0x00, 0x00, 0x00,
;0x00, 0x00, 0x00, 0x00, 0x00, 0x00, 0x00, 0x00,
;0x00, 0x00, 0x00, 0x00, 0x00, 0x00, 0x00, 0x00,
;0x00, 0x00, 0x00, 0x00, 0x00, 0x00, 0x00, 0x00,
;0x00, 0x00, 0x00, 0x00, 0x00, 0x00, 0x00, 0x00,
;0x00, 0x00, 0x00, 0x00, 0x00, 0x00, 0x00, 0x00,
;0x00, 0x00, 0x00, 0x00, 0x00, 0x00, 0x00, 0x00,
;0x00, 0x00, 0x00, 0x00, 0x00, 0x00, 0x00, 0x00,
;0x00, 0x00, 0x00, 0x00, 0x00, 0x00, 0x00, 0x00,
;0x00, 0x00, 0x00, 0x00, 0x00, 0x00, 0x00, 0x00,
;0x00, 0x00, 0x00, 0x00, 0x00, 0x00, 0x80, 0xC0,
;0xE0, 0xF8, 0xFC, 0xFF, 0xFF, 0xFF, 0xFF, 0x3F,
;0x1F, 0x0F, 0x07, 0x00, 0x00, 0x00, 0x00, 0x00,
;0x00, 0x00, 0x00, 0x00, 0x00, 0x00, 0x00, 0x00,
;0x00, 0x00, 0x00, 0x00, 0x00, 0x00, 0x00, 0x00,
;0x00, 0x00, 0x00, 0x00, 0x00, 0x00, 0x00, 0x00,
;0x00, 0x00, 0x00, 0x00, 0x00, 0x00, 0x00, 0x00,
;0x00, 0x00, 0x00, 0x00, 0x00, 0x00, 0x00, 0x00,
;0x00, 0x00, 0x00, 0x00, 0x00, 0x00, 0x00, 0x00,
;0x00, 0x00, 0x00, 0x00, 0x00, 0x00, 0x00, 0x00,
;0x00, 0x00, 0x00, 0x00, 0x00, 0x00, 0x00, 0x00,
;0x00, 0x00, 0x00, 0x00, 0x00, 0x00, 0x00, 0x00,
;0x00, 0x00, 0x00, 0x00, 0x00, 0x00, 0x00, 0x00,
;0x00, 0x00, 0x00, 0x00, 0x00, 0x00, 0x00, 0x00,
;0x00, 0x00, 0x00, 0x00, 0x00, 0x00, 0x00, 0x00,
;0xC0, 0xE0, 0xF0, 0xF8, 0xFE, 0xFF, 0xFF, 0xFF,
;0x7F, 0x3F, 0x0F, 0x07, 0x03, 0x01, 0x00, 0x00,
;0x00, 0x00, 0x00, 0x00, 0x00, 0x00, 0x00, 0x00,
;0x00, 0x00, 0x00, 0x00, 0x00, 0x00, 0x00, 0x00,
;0x00, 0x00, 0x00, 0x00, 0x00, 0x00, 0x00, 0x00,
;0x00, 0x00, 0x00, 0x00, 0x00, 0x00, 0x00, 0x00,
;0x00, 0x00, 0x00, 0x00, 0x00, 0x00, 0x00, 0x00,
;0x00, 0x00, 0x00, 0x00, 0x00, 0x00, 0x00, 0x00,
;0x00, 0x00, 0x00, 0x00, 0x00, 0x00, 0x00, 0x00,
;0x00, 0x00, 0x00, 0x00, 0x00, 0x00, 0x00, 0x00,
;0x00, 0x00, 0x00, 0x00, 0x00, 0x00, 0x00, 0x00,
;0x00, 0x00, 0x00, 0x00, 0x00, 0x00, 0x00, 0x00,
;0x00, 0x00, 0x00, 0x00, 0x00, 0x00, 0x00, 0x00,
;0x00, 0x00, 0x00, 0x00, 0x00, 0x00, 0x00, 0x00,
;0x00, 0x00, 0x00, 0x00, 0x00, 0x00, 0x00, 0x00,
;0x3F, 0x3F, 0x3F, 0x3F, 0x3F, 0x3F, 0x3F, 0x3F,
;0x3F, 0x3F, 0x3F, 0x3F, 0x3F, 0x3F, 0x3F, 0x3F,
;0x3F, 0x3F, 0x3F, 0x3F, 0x3F, 0x3F, 0x3F, 0x00,
;0x00, 0x00, 0x00, 0x00, 0x00, 0x00, 0x00, 0x00,
;0x00, 0x00, 0x00, 0x00, 0x00, 0x00, 0x00, 0x00,
;0x00, 0x00, 0x00, 0x00, 0x00, 0x00, 0x00, 0x00,
;0x00, 0x00, 0x00, 0x00, 0x00, 0x00, 0x00, 0x00,
;0x00, 0x00, 0x00, 0x00, 0x00, 0x00, 0x00, 0x00,
;0x00, 0x00, 0x00, 0x00, 0x00, 0x00, 0x00, 0x00,
;0x00, 0x00, 0x00, 0x00, 0x00, 0x00, 0x00, 0x00,
;0xF0, 0xF0, 0xF0, 0xE0, 0xC0, 0x00, 0x00, 0x80,
;0xE0, 0xF0, 0xF0, 0xF0, 0x00, 0x00, 0x00, 0x00,
;0x00, 0x00, 0xE0, 0xE0, 0xF0, 0x70, 0x70, 0x60,
;0x00, 0x00, 0x00, 0x00, 0x00, 0x00, 0x00, 0x00,
;0x00, 0x00, 0x00, 0x00, 0x00, 0x00, 0x00, 0x00,
;0x00, 0x00, 0x00, 0x00, 0x00, 0x00, 0x00, 0x00,
;0x00, 0x00, 0x00, 0x00, 0x00, 0x00, 0x00, 0x00,
;0x00, 0x00, 0x00, 0x00, 0x00, 0x00, 0x00, 0x00,
;0x00, 0x00, 0x00, 0x00, 0x00, 0x00, 0x00, 0x00,
;0x00, 0x00, 0x00, 0x00, 0x00, 0x00, 0x00, 0x00,
;0x00, 0x00, 0x00, 0x00, 0x00, 0x00, 0x00, 0x00,
;0xF0, 0xF0, 0xE0, 0x00, 0x00, 0xE0, 0xF0, 0xF0,
;0x00, 0x00, 0xF0, 0xF0, 0xF0, 0x70, 0xE0, 0xE0,
;0xE0, 0x80, 0x00, 0x00, 0x00, 0x00, 0x00, 0x00,
;0x00, 0x00, 0x00, 0x00, 0x00, 0x00, 0x00, 0x00,
;0x7F, 0x7F, 0x01, 0x0F, 0x7F, 0x7E, 0x7E, 0x7F,
;0x0F, 0x7F, 0x7F, 0x7F, 0x00, 0x00, 0xF0, 0xF0,
;0x60, 0x70, 0x73, 0xE7, 0xE7, 0xEF, 0x7E, 0x7E,
;0x3C, 0x00, 0x00, 0x00, 0x00, 0x00, 0x00, 0x00,
;0x00, 0x00, 0x00, 0x00, 0x00, 0x00, 0x00, 0x00,
;0x00, 0x00, 0x00, 0x00, 0x00, 0x00, 0x00, 0x00,
;0x00, 0x00, 0x00, 0x00, 0x00, 0x00, 0x00, 0x00,
;0x00, 0x00, 0x00, 0x00, 0x00, 0x00, 0x00, 0x00,
;0x00, 0x00, 0x00, 0x00, 0x00, 0x00, 0x00, 0x00,
;0x00, 0x00, 0x00, 0x00, 0x00, 0x00, 0x00, 0x00,
;0x00, 0x00, 0x00, 0x00, 0x00, 0x00, 0x00, 0x00,
;0x7F, 0x7F, 0x7F, 0x07, 0x07, 0x7F, 0x7F, 0x7F,
;0x00, 0x00, 0x7F, 0x7F, 0x7F, 0x0E, 0x0F, 0x0F,
;0x07, 0x01, 0x00, 0x00, 0x00, 0x00, 0x00, 0x00,
;0x00, 0x00, 0x00, 0x00, 0x00, 0x00, 0x00, 0x00,
;0x00, 0x00, 0x00, 0x00, 0x00, 0x00, 0x00, 0x00,
;0x00, 0x00, 0x00, 0x00, 0x00, 0x00, 0x00, 0x00,
;0x00, 0x00, 0x00, 0x00, 0x00, 0x00, 0x00, 0x00,
;0x00, 0x00, 0x00, 0x00, 0x00, 0x00, 0x00, 0x00,
;0x00, 0x00, 0x00, 0x00, 0x00, 0x00, 0x00, 0x00,
;0x00, 0x00, 0x00, 0x00, 0x00, 0x00, 0x00, 0x00,
;0x00, 0x00, 0x00, 0x00, 0x00, 0x00, 0x00, 0x00,
;0x00, 0x00, 0x00, 0x00, 0x00, 0x00, 0x00, 0x00,
;0x00, 0x00, 0x00, 0x00, 0x00, 0x00, 0x00, 0x00,
;0x00, 0x00, 0x00, 0x00, 0x00, 0x00, 0x00, 0x00,
;0x00, 0x00, 0x00, 0x00, 0x00, 0x00, 0x00, 0x00,
;0x00, 0x00, 0x00, 0x00, 0x00, 0x00, 0x00, 0x00,
;0x00, 0x00, 0x00, 0x00, 0x00, 0x00, 0x00, 0x00,
;0x00, 0x00, 0x00, 0x00, 0x00, 0x00, 0x00, 0x00,
;#endif
;};
;
;#include <math.h>
;
;//#include "includes/graphics/glcd.h"
;/*#include "includes/font/courier7x14.c"
;#include "includes/font/courier_bold14.c"
;#include "includes/font/arial14.c"
;#include "includes/font/arial_bold14.c"
;#include "includes/font/script19.c"  */
;/////////////////////////////////////
;// Declare your global variables here
;int second,hour,minute,H;
;int counter,but0_counter,but2_counter,pointer,day_pointer,Rs,Rm,Rh;
;int sh_day,sh_month,sh_year;
;int ch_day,ch_month,ch_year;
;bit clock_mode = 0; //0 : 12 hour ----- 1: 24 hour
;char am_pm = 'a'; //a:AM ---- p:PM

	.DSEG
;char temp_s [15];
;bit show_cl=1;
;bit mode=0; //0: normal   1: setting
;bit mode_about=0;
;bit on_while=0;
;
;float xs,ys,xs0,ys0;
;float Xm,Ym,Xh,Yh;
;float ym0,xm0,yh0,xh0;
;int x,y;
;
;////////////////////////////
;int MiladiIsLeap(int miladiYear)
; 0000 003D {

	.CSEG
_MiladiIsLeap:
; .FSTART _MiladiIsLeap
; 0000 003E  if(((miladiYear % 100)!= 0 && (miladiYear % 4) == 0) || ((miladiYear % 100)== 0 && (miladiYear % 400) == 0))
	CALL SUBOPT_0x0
;	miladiYear -> Y+0
	LDI  R30,LOW(100)
	LDI  R31,HIGH(100)
	CALL __MODW21
	SBIW R30,0
	BREQ _0x5
	LD   R26,Y
	LDD  R27,Y+1
	LDI  R30,LOW(4)
	LDI  R31,HIGH(4)
	CALL __MODW21
	SBIW R30,0
	BREQ _0x7
_0x5:
	LD   R26,Y
	LDD  R27,Y+1
	LDI  R30,LOW(100)
	LDI  R31,HIGH(100)
	CALL __MODW21
	SBIW R30,0
	BRNE _0x8
	LD   R26,Y
	LDD  R27,Y+1
	LDI  R30,LOW(400)
	LDI  R31,HIGH(400)
	CALL __MODW21
	SBIW R30,0
	BREQ _0x7
_0x8:
	RJMP _0x4
_0x7:
; 0000 003F   return 1;
	LDI  R30,LOW(1)
	LDI  R31,HIGH(1)
	RJMP _0x2120013
; 0000 0040  else
_0x4:
; 0000 0041   return 0;
	LDI  R30,LOW(0)
	LDI  R31,HIGH(0)
	RJMP _0x2120013
; 0000 0042 }
; .FEND
;
;typedef struct _SHAMSIDATE
;{
;    int iYear;
;    int iMonth;
;    int iDay;
;}SHAMSIDATE;
;
;typedef struct _MILADIDATE
;{
; int         iYear;
; int         iMonth;
; int         iDay;
;}MILADIDATE;
;
;SHAMSIDATE sh;
;MILADIDATE m;
;
;SHAMSIDATE MiladiToShamsi(int iMiladiMonth,int iMiladiDay,int iMiladiYear)
; 0000 0056 {
_MiladiToShamsi:
; .FSTART _MiladiToShamsi
; 0000 0057 
; 0000 0058     int  shamsiDay, shamsiMonth, shamsiYear;
; 0000 0059     int  dayCount,farvardinDayDiff,deyDayDiff ;
; 0000 005A     int  sumDayMiladiMonth[] = {0,31,59,90,120,151,181,212,243,273,304,334};
; 0000 005B     int  sumDayMiladiMonthLeap[]= {0,31,60,91,121,152,182,213,244,274,305,335};
; 0000 005C     SHAMSIDATE  shamsidate;
; 0000 005D 
; 0000 005E  farvardinDayDiff=79;
	ST   -Y,R27
	ST   -Y,R26
	SBIW R28,63
	SBIW R28,3
	LDI  R24,48
	LDI  R26,LOW(6)
	LDI  R27,HIGH(6)
	LDI  R30,LOW(_0xC*2)
	LDI  R31,HIGH(_0xC*2)
	CALL __INITLOCB
	CALL __SAVELOCR6
;	iMiladiMonth -> Y+76
;	iMiladiDay -> Y+74
;	iMiladiYear -> Y+72
;	shamsiDay -> R16,R17
;	shamsiMonth -> R18,R19
;	shamsiYear -> R20,R21
;	dayCount -> Y+64
;	farvardinDayDiff -> Y+62
;	deyDayDiff -> Y+60
;	sumDayMiladiMonth -> Y+36
;	sumDayMiladiMonthLeap -> Y+12
;	shamsidate -> Y+6
	LDI  R30,LOW(79)
	LDI  R31,HIGH(79)
	STD  Y+62,R30
	STD  Y+62+1,R31
; 0000 005F 
; 0000 0060 if (MiladiIsLeap(iMiladiYear))
	CALL SUBOPT_0x1
	RCALL _MiladiIsLeap
	SBIW R30,0
	BREQ _0xD
; 0000 0061  {
; 0000 0062     dayCount = sumDayMiladiMonthLeap[iMiladiMonth-1] + iMiladiDay;
	CALL SUBOPT_0x2
	MOVW R26,R28
	ADIW R26,12
	RJMP _0x21B
; 0000 0063  }
; 0000 0064 else
_0xD:
; 0000 0065  {
; 0000 0066     dayCount = sumDayMiladiMonth[iMiladiMonth-1] + iMiladiDay;
	CALL SUBOPT_0x2
	MOVW R26,R28
	ADIW R26,36
_0x21B:
	LSL  R30
	ROL  R31
	CALL SUBOPT_0x3
	__GETW2SX 74
	CALL SUBOPT_0x4
; 0000 0067  }
; 0000 0068 if((MiladiIsLeap(iMiladiYear - 1)))
	CALL SUBOPT_0x1
	SBIW R26,1
	RCALL _MiladiIsLeap
	SBIW R30,0
	BREQ _0xF
; 0000 0069  {
; 0000 006A     deyDayDiff = 11;
	LDI  R30,LOW(11)
	LDI  R31,HIGH(11)
	RJMP _0x21C
; 0000 006B  }
; 0000 006C else
_0xF:
; 0000 006D  {
; 0000 006E     deyDayDiff = 10;
	LDI  R30,LOW(10)
	LDI  R31,HIGH(10)
_0x21C:
	STD  Y+60,R30
	STD  Y+60+1,R31
; 0000 006F  }
; 0000 0070 if (dayCount > farvardinDayDiff)
	LDD  R30,Y+62
	LDD  R31,Y+62+1
	CALL SUBOPT_0x5
	CP   R30,R26
	CPC  R31,R27
	BRLT PC+2
	RJMP _0x11
; 0000 0071 {
; 0000 0072     dayCount = dayCount - farvardinDayDiff;
	LDD  R26,Y+62
	LDD  R27,Y+62+1
	CALL SUBOPT_0x6
	SUB  R30,R26
	SBC  R31,R27
	CALL SUBOPT_0x7
; 0000 0073     if (dayCount <= 186)
	CPI  R26,LOW(0xBB)
	LDI  R30,HIGH(0xBB)
	CPC  R27,R30
	BRGE _0x12
; 0000 0074      {
; 0000 0075       switch (dayCount%31)
	CALL SUBOPT_0x8
	CALL __MODW21
; 0000 0076        {
; 0000 0077         case 0:
	SBIW R30,0
	BRNE _0x17
; 0000 0078          shamsiMonth = dayCount / 31;
	CALL SUBOPT_0x8
	CALL __DIVW21
	MOVW R18,R30
; 0000 0079          shamsiDay = 31;
	__GETWRN 16,17,31
; 0000 007A         break;
	RJMP _0x15
; 0000 007B         default:
_0x17:
; 0000 007C          shamsiMonth = (dayCount / 31) + 1;
	CALL SUBOPT_0x8
	CALL __DIVW21
	ADIW R30,1
	MOVW R18,R30
; 0000 007D          shamsiDay = (dayCount%31);
	CALL SUBOPT_0x8
	CALL __MODW21
	MOVW R16,R30
; 0000 007E         break;
; 0000 007F       }
_0x15:
; 0000 0080       shamsiYear = iMiladiYear - 621;
	RJMP _0x21D
; 0000 0081      }
; 0000 0082    else
_0x12:
; 0000 0083      {
; 0000 0084     dayCount = dayCount - 186;
	CALL SUBOPT_0x6
	SUBI R30,LOW(186)
	SBCI R31,HIGH(186)
	CALL SUBOPT_0x7
; 0000 0085     switch (dayCount%30)
	CALL SUBOPT_0x9
; 0000 0086       {
; 0000 0087        case 0:
	SBIW R30,0
	BRNE _0x1D
; 0000 0088         shamsiMonth = (dayCount / 30) + 6;
	CALL SUBOPT_0xA
	ADIW R30,6
	MOVW R18,R30
; 0000 0089         shamsiDay = 30;
	__GETWRN 16,17,30
; 0000 008A        break;
	RJMP _0x1B
; 0000 008B      default:
_0x1D:
; 0000 008C        shamsiMonth = (dayCount / 30) + 7;
	CALL SUBOPT_0xA
	ADIW R30,7
	MOVW R18,R30
; 0000 008D        shamsiDay = (dayCount%30);
	CALL SUBOPT_0xB
	MOVW R16,R30
; 0000 008E        break;
; 0000 008F      }
_0x1B:
; 0000 0090       shamsiYear = iMiladiYear - 621;
_0x21D:
	__GETW1SX 72
	SUBI R30,LOW(621)
	SBCI R31,HIGH(621)
	MOVW R20,R30
; 0000 0091     }
; 0000 0092   }
; 0000 0093 else
	RJMP _0x1E
_0x11:
; 0000 0094   {
; 0000 0095     dayCount = dayCount + deyDayDiff;
	LDD  R30,Y+60
	LDD  R31,Y+60+1
	CALL SUBOPT_0x5
	CALL SUBOPT_0x4
; 0000 0096 
; 0000 0097     switch (dayCount%30)
	CALL SUBOPT_0xB
; 0000 0098     {
; 0000 0099     case 0 :
	SBIW R30,0
	BRNE _0x23
; 0000 009A       shamsiMonth = (dayCount / 30) + 9;
	CALL SUBOPT_0xA
	ADIW R30,9
	MOVW R18,R30
; 0000 009B       shamsiDay = 30;
	__GETWRN 16,17,30
; 0000 009C      break;
	RJMP _0x21
; 0000 009D     default:
_0x23:
; 0000 009E       shamsiMonth = (dayCount / 30) + 10;
	CALL SUBOPT_0xA
	ADIW R30,10
	MOVW R18,R30
; 0000 009F       shamsiDay = (dayCount%30);
	CALL SUBOPT_0xB
	MOVW R16,R30
; 0000 00A0      break;
; 0000 00A1     }
_0x21:
; 0000 00A2     shamsiYear = iMiladiYear - 622;
	__GETW1SX 72
	SUBI R30,LOW(622)
	SBCI R31,HIGH(622)
	MOVW R20,R30
; 0000 00A3 
; 0000 00A4   }
_0x1E:
; 0000 00A5     shamsidate.iYear = shamsiYear;
	__PUTWSR 20,21,6
; 0000 00A6     shamsidate.iMonth = shamsiMonth;
	__PUTWSR 18,19,8
; 0000 00A7     shamsidate.iDay = shamsiDay;
	__PUTWSR 16,17,10
; 0000 00A8 
; 0000 00A9   return shamsidate ;
	MOVW R30,R28
	ADIW R30,6
	MOVW R26,R28
	SUBI R26,LOW(-(66))
	SBCI R27,HIGH(-(66))
	LDI  R24,6
	CALL __COPYMML
	MOVW R30,R28
	SUBI R30,LOW(-(66))
	SBCI R31,HIGH(-(66))
	LDI  R24,6
	CALL __LOADLOCR6
	ADIW R28,63
	ADIW R28,15
	RET
; 0000 00AA }
; .FEND
;
;MILADIDATE ShamsiToMiladi(int ShamsiMonth,int ShamsiDay,int ShamsiYear)
; 0000 00AD {
_ShamsiToMiladi:
; .FSTART _ShamsiToMiladi
; 0000 00AE 
; 0000 00AF MILADIDATE    miladiDate;
; 0000 00B0 int           marchDayDiff, remainDay;
; 0000 00B1 int           dayCount, miladiYear, i;
; 0000 00B2 
; 0000 00B3 
; 0000 00B4 // this buffer has day count of Miladi month from April to January for a none year.
; 0000 00B5 
; 0000 00B6 int miladiMonth[12]  =  {30,31,30,31,31,30,31,30,31,31,28,31};
; 0000 00B7 miladiYear = ShamsiYear + 621;
	ST   -Y,R27
	ST   -Y,R26
	SBIW R28,40
	LDI  R24,24
	LDI  R26,LOW(0)
	LDI  R27,HIGH(0)
	LDI  R30,LOW(_0x24*2)
	LDI  R31,HIGH(_0x24*2)
	CALL __INITLOCB
	CALL __SAVELOCR6
;	ShamsiMonth -> Y+50
;	ShamsiDay -> Y+48
;	ShamsiYear -> Y+46
;	miladiDate -> Y+34
;	marchDayDiff -> R16,R17
;	remainDay -> R18,R19
;	dayCount -> R20,R21
;	miladiYear -> Y+32
;	i -> Y+30
;	miladiMonth -> Y+6
	LDD  R30,Y+46
	LDD  R31,Y+46+1
	SUBI R30,LOW(-621)
	SBCI R31,HIGH(-621)
	STD  Y+32,R30
	STD  Y+32+1,R31
; 0000 00B8 
; 0000 00B9 //Detemining the Farvardin the First
; 0000 00BA 
; 0000 00BB if(MiladiIsLeap(miladiYear)==1)
	LDD  R26,Y+32
	LDD  R27,Y+32+1
	RCALL _MiladiIsLeap
	CPI  R30,LOW(0x1)
	LDI  R26,HIGH(0x1)
	CPC  R31,R26
	BRNE _0x25
; 0000 00BC {
; 0000 00BD //this is a Miladi leap year so Shamsi is leap too so the 1st of Farvardin is March 20 (3/20)
; 0000 00BE   marchDayDiff = 12;
	__GETWRN 16,17,12
; 0000 00BF }
; 0000 00C0 else
	RJMP _0x26
_0x25:
; 0000 00C1 {
; 0000 00C2 //this is not a Miladi leap year so Shamsi is not leap too so the 1st of Farvardin is March 21 (3/21)
; 0000 00C3   marchDayDiff = 11;
	__GETWRN 16,17,11
; 0000 00C4 }
_0x26:
; 0000 00C5 
; 0000 00C6 // If next year is leap we will add one day to Feb.
; 0000 00C7 if(MiladiIsLeap(miladiYear+1)==1)
	LDD  R26,Y+32
	LDD  R27,Y+32+1
	ADIW R26,1
	RCALL _MiladiIsLeap
	CPI  R30,LOW(0x1)
	LDI  R26,HIGH(0x1)
	CPC  R31,R26
	BRNE _0x27
; 0000 00C8 {
; 0000 00C9 miladiMonth[10] = miladiMonth[10] + 1; //Adding one day to Feb
	LDD  R30,Y+26
	LDD  R31,Y+26+1
	ADIW R30,1
	STD  Y+26,R30
	STD  Y+26+1,R31
; 0000 00CA }
; 0000 00CB 
; 0000 00CC //Calculate the day count for input shamsi date from 1st Farvadin
; 0000 00CD 
; 0000 00CE if((ShamsiMonth>=1)&&( ShamsiMonth<=6))
_0x27:
	LDD  R26,Y+50
	LDD  R27,Y+50+1
	SBIW R26,1
	BRLT _0x29
	LDD  R26,Y+50
	LDD  R27,Y+50+1
	SBIW R26,7
	BRLT _0x2A
_0x29:
	RJMP _0x28
_0x2A:
; 0000 00CF  dayCount = ((ShamsiMonth-1) * 31) + ShamsiDay;
	LDD  R30,Y+50
	LDD  R31,Y+50+1
	SBIW R30,1
	LDI  R26,LOW(31)
	LDI  R27,HIGH(31)
	CALL __MULW12
	RJMP _0x21E
; 0000 00D0 else
_0x28:
; 0000 00D1  dayCount =(6 * 31) + ((ShamsiMonth - 7) * 30) + ShamsiDay;
	LDD  R30,Y+50
	LDD  R31,Y+50+1
	SBIW R30,7
	LDI  R26,LOW(30)
	LDI  R27,HIGH(30)
	CALL __MULW12
	SUBI R30,LOW(-186)
	SBCI R31,HIGH(-186)
_0x21E:
	LDD  R26,Y+48
	LDD  R27,Y+48+1
	ADD  R30,R26
	ADC  R31,R27
	MOVW R20,R30
; 0000 00D2 
; 0000 00D3 //Finding the correspond miladi month and day
; 0000 00D4 
; 0000 00D5 if (dayCount <= marchDayDiff) //So we are in 20(for leap year) or 21for none leap year) to 31 march
	__CPWRR 16,17,20,21
	BRLT _0x2C
; 0000 00D6 {
; 0000 00D7  miladiDate.iDay = dayCount + (31 - marchDayDiff);
	LDI  R30,LOW(31)
	LDI  R31,HIGH(31)
	SUB  R30,R16
	SBC  R31,R17
	ADD  R30,R20
	ADC  R31,R21
	STD  Y+38,R30
	STD  Y+38+1,R31
; 0000 00D8  miladiDate.iMonth = 3;
	LDI  R30,LOW(3)
	LDI  R31,HIGH(3)
	RJMP _0x21F
; 0000 00D9  miladiDate.iYear=miladiYear;
; 0000 00DA }
; 0000 00DB else
_0x2C:
; 0000 00DC 
; 0000 00DD {
; 0000 00DE  remainDay = dayCount - marchDayDiff;
	MOVW R30,R20
	SUB  R30,R16
	SBC  R31,R17
	MOVW R18,R30
; 0000 00DF 
; 0000 00E0 
; 0000 00E1   i = 0; //starting from April
	LDI  R30,LOW(0)
	STD  Y+30,R30
	STD  Y+30+1,R30
; 0000 00E2 
; 0000 00E3 while ((remainDay > miladiMonth[i]))
_0x2E:
	CALL SUBOPT_0xC
	CP   R30,R18
	CPC  R31,R19
	BRGE _0x30
; 0000 00E4 {
; 0000 00E5  remainDay = remainDay - miladiMonth[i];
	CALL SUBOPT_0xC
	__SUBWRR 18,19,30,31
; 0000 00E6  i++;
	LDD  R30,Y+30
	LDD  R31,Y+30+1
	ADIW R30,1
	STD  Y+30,R30
	STD  Y+30+1,R31
; 0000 00E7 }
	RJMP _0x2E
_0x30:
; 0000 00E8  miladiDate.iDay = remainDay;
	__PUTWSR 18,19,38
; 0000 00E9 
; 0000 00EA if (i > 8) // We are in the next Miladi Year
	LDD  R26,Y+30
	LDD  R27,Y+30+1
	SBIW R26,9
	BRLT _0x31
; 0000 00EB {
; 0000 00EC  miladiDate.iMonth = i - 8;
	LDD  R30,Y+30
	LDD  R31,Y+30+1
	SBIW R30,8
	STD  Y+36,R30
	STD  Y+36+1,R31
; 0000 00ED  miladiDate.iYear =  miladiYear + 1;
	LDD  R30,Y+32
	LDD  R31,Y+32+1
	ADIW R30,1
	RJMP _0x220
; 0000 00EE }
; 0000 00EF else
_0x31:
; 0000 00F0 {
; 0000 00F1  miladiDate.iMonth = i + 4;
	LDD  R30,Y+30
	LDD  R31,Y+30+1
	ADIW R30,4
_0x21F:
	STD  Y+36,R30
	STD  Y+36+1,R31
; 0000 00F2  miladiDate.iYear =  miladiYear;
	LDD  R30,Y+32
	LDD  R31,Y+32+1
_0x220:
	STD  Y+34,R30
	STD  Y+34+1,R31
; 0000 00F3  }
; 0000 00F4 
; 0000 00F5 }
; 0000 00F6 
; 0000 00F7  return miladiDate;
	MOVW R30,R28
	ADIW R30,34
	MOVW R26,R28
	ADIW R26,40
	LDI  R24,6
	CALL __COPYMML
	MOVW R30,R28
	ADIW R30,40
	LDI  R24,6
	CALL __LOADLOCR6
	ADIW R28,52
	RET
; 0000 00F8 }
; .FEND
;
;
;char* miladi_day [7]={"Sunday   ","Monday   ","Tuesday  ","Wedensday","Thursday ","Friday   ","Saturday "};

	.DSEG
_0x33:
	.BYTE 0x46
;char* miladi_month [12]={"January  ","February ","March    ","April    ","May      ","June     ","July     ","August   " ...
_0x35:
	.BYTE 0x78
;
;/////////////////////////////
;void inc_selection(int s)
; 0000 0100 {

	.CSEG
_inc_selection:
; .FSTART _inc_selection
; 0000 0101  if(clock_mode==0)
	ST   -Y,R27
	ST   -Y,R26
;	s -> Y+0
	SBRC R2,0
	RJMP _0x37
; 0000 0102  {
; 0000 0103   if(s>3)
	LD   R26,Y
	LDD  R27,Y+1
	SBIW R26,4
	BRLT _0x38
; 0000 0104   {
; 0000 0105    s--;
	LD   R30,Y
	LDD  R31,Y+1
	SBIW R30,1
	ST   Y,R30
	STD  Y+1,R31
; 0000 0106   }
; 0000 0107   if(s==3)
_0x38:
	LD   R26,Y
	LDD  R27,Y+1
	SBIW R26,3
	BRNE _0x39
; 0000 0108   {
; 0000 0109    if(am_pm=='a')
	LDS  R26,_am_pm
	CPI  R26,LOW(0x61)
	BRNE _0x3A
; 0000 010A    {
; 0000 010B     am_pm='p';
	LDI  R30,LOW(112)
	RJMP _0x221
; 0000 010C    }
; 0000 010D    else if(am_pm=='p')
_0x3A:
	LDS  R26,_am_pm
	CPI  R26,LOW(0x70)
	BRNE _0x3C
; 0000 010E    {
; 0000 010F     am_pm='a';
	LDI  R30,LOW(97)
_0x221:
	STS  _am_pm,R30
; 0000 0110    }
; 0000 0111    return;
_0x3C:
_0x2120013:
	ADIW R28,2
	RET
; 0000 0112   }
; 0000 0113  }
_0x39:
; 0000 0114  switch(s)
_0x37:
	LD   R30,Y
	LDD  R31,Y+1
; 0000 0115  {
; 0000 0116   case 0:
	SBIW R30,0
	BREQ PC+2
	RJMP _0x40
; 0000 0117    if(second>30)
	LDI  R30,LOW(30)
	LDI  R31,HIGH(30)
	CP   R30,R4
	CPC  R31,R5
	BRLT PC+2
	RJMP _0x41
; 0000 0118    {
; 0000 0119     second=0;
	CALL SUBOPT_0xD
; 0000 011A     minute++;
; 0000 011B     if(minute>=60)
	BRGE PC+2
	RJMP _0x42
; 0000 011C    {
; 0000 011D     hour++;
	MOVW R30,R6
	ADIW R30,1
	MOVW R6,R30
; 0000 011E     minute=0;
	CLR  R8
	CLR  R9
; 0000 011F     if(clock_mode==0)
	SBRC R2,0
	RJMP _0x43
; 0000 0120     {
; 0000 0121      if(am_pm=='a' && hour>=12)
	LDS  R26,_am_pm
	CPI  R26,LOW(0x61)
	BRNE _0x45
	CALL SUBOPT_0xE
	BRGE _0x46
_0x45:
	RJMP _0x44
_0x46:
; 0000 0122      {
; 0000 0123       am_pm='p';
	LDI  R30,LOW(112)
	STS  _am_pm,R30
; 0000 0124      }
; 0000 0125      else if(am_pm=='p' && hour>=13)
	RJMP _0x47
_0x44:
	LDS  R26,_am_pm
	CPI  R26,LOW(0x70)
	BRNE _0x49
	CALL SUBOPT_0xF
	BRGE _0x4A
_0x49:
	RJMP _0x48
_0x4A:
; 0000 0126      {
; 0000 0127       hour=1;
	LDI  R30,LOW(1)
	LDI  R31,HIGH(1)
	MOVW R6,R30
; 0000 0128      }
; 0000 0129      else if(am_pm=='p' && hour>=12)
	RJMP _0x4B
_0x48:
	LDS  R26,_am_pm
	CPI  R26,LOW(0x70)
	BRNE _0x4D
	CALL SUBOPT_0xE
	BRGE _0x4E
_0x4D:
	RJMP _0x4C
_0x4E:
; 0000 012A      {
; 0000 012B       am_pm='a';
	CALL SUBOPT_0x10
; 0000 012C       hour=0;
; 0000 012D       sh_day++;
; 0000 012E       day_pointer++;
; 0000 012F       if(day_pointer==7)
	BRNE _0x4F
; 0000 0130         day_pointer=0;
	CALL SUBOPT_0x11
; 0000 0131       //sh_day
; 0000 0132        switch(sh_month)
_0x4F:
	CALL SUBOPT_0x12
; 0000 0133        {
; 0000 0134         case 1:
	BREQ _0x54
; 0000 0135         case 2:
	CPI  R30,LOW(0x2)
	LDI  R26,HIGH(0x2)
	CPC  R31,R26
	BRNE _0x55
_0x54:
; 0000 0136         case 3:
	RJMP _0x56
_0x55:
	CPI  R30,LOW(0x3)
	LDI  R26,HIGH(0x3)
	CPC  R31,R26
	BRNE _0x57
_0x56:
; 0000 0137         case 4:
	RJMP _0x58
_0x57:
	CPI  R30,LOW(0x4)
	LDI  R26,HIGH(0x4)
	CPC  R31,R26
	BRNE _0x59
_0x58:
; 0000 0138         case 5:
	RJMP _0x5A
_0x59:
	CPI  R30,LOW(0x5)
	LDI  R26,HIGH(0x5)
	CPC  R31,R26
	BRNE _0x5B
_0x5A:
; 0000 0139         case 6:
	RJMP _0x5C
_0x5B:
	CPI  R30,LOW(0x6)
	LDI  R26,HIGH(0x6)
	CPC  R31,R26
	BRNE _0x5D
_0x5C:
; 0000 013A         if(sh_day==32)
	CALL SUBOPT_0x13
	SBIW R26,32
	BRNE _0x5E
; 0000 013B         {
; 0000 013C         sh_day=1;
	CALL SUBOPT_0x14
; 0000 013D         sh_month++;
; 0000 013E         if(sh_month==13)
	BRNE _0x5F
; 0000 013F         {
; 0000 0140          sh_month=1;
	CALL SUBOPT_0x15
; 0000 0141          sh_year++;
; 0000 0142         }
; 0000 0143         }
_0x5F:
; 0000 0144         break;
_0x5E:
	RJMP _0x52
; 0000 0145 
; 0000 0146         case 7:
_0x5D:
	CPI  R30,LOW(0x7)
	LDI  R26,HIGH(0x7)
	CPC  R31,R26
	BREQ _0x61
; 0000 0147         case 8:
	CPI  R30,LOW(0x8)
	LDI  R26,HIGH(0x8)
	CPC  R31,R26
	BRNE _0x62
_0x61:
; 0000 0148         case 9:
	RJMP _0x63
_0x62:
	CPI  R30,LOW(0x9)
	LDI  R26,HIGH(0x9)
	CPC  R31,R26
	BRNE _0x64
_0x63:
; 0000 0149         case 10:
	RJMP _0x65
_0x64:
	CPI  R30,LOW(0xA)
	LDI  R26,HIGH(0xA)
	CPC  R31,R26
	BRNE _0x66
_0x65:
; 0000 014A         case 11:
	RJMP _0x67
_0x66:
	CPI  R30,LOW(0xB)
	LDI  R26,HIGH(0xB)
	CPC  R31,R26
	BRNE _0x68
_0x67:
; 0000 014B          if(sh_day==31)
	CALL SUBOPT_0x13
	SBIW R26,31
	BRNE _0x69
; 0000 014C          {
; 0000 014D          sh_day=1;
	CALL SUBOPT_0x14
; 0000 014E          sh_month++;
; 0000 014F          if(sh_month==13)
	BRNE _0x6A
; 0000 0150         {
; 0000 0151          sh_month=1;
	CALL SUBOPT_0x15
; 0000 0152          sh_year++;
; 0000 0153         }
; 0000 0154          }
_0x6A:
; 0000 0155         break;
_0x69:
	RJMP _0x52
; 0000 0156 
; 0000 0157         case 12:
_0x68:
	CPI  R30,LOW(0xC)
	LDI  R26,HIGH(0xC)
	CPC  R31,R26
	BRNE _0x52
; 0000 0158          if(sh_day==30)
	CALL SUBOPT_0x13
	SBIW R26,30
	BRNE _0x6C
; 0000 0159          {
; 0000 015A          sh_day=1;
	CALL SUBOPT_0x16
; 0000 015B          sh_month=1;
; 0000 015C          sh_year++;
; 0000 015D          }
; 0000 015E        }
_0x6C:
_0x52:
; 0000 015F      }
; 0000 0160     }
_0x4C:
_0x4B:
_0x47:
; 0000 0161     else
	RJMP _0x6D
_0x43:
; 0000 0162     {
; 0000 0163      if(hour>=24)
	CALL SUBOPT_0x17
	BRGE PC+2
	RJMP _0x6E
; 0000 0164      {
; 0000 0165       hour=0;
	CALL SUBOPT_0x18
; 0000 0166       sh_day++;
; 0000 0167       day_pointer++;
; 0000 0168       if(day_pointer==7)
	BRNE _0x6F
; 0000 0169         day_pointer=0;
	CALL SUBOPT_0x11
; 0000 016A       switch(sh_month)
_0x6F:
	CALL SUBOPT_0x12
; 0000 016B    {
; 0000 016C    case 1:
	BREQ _0x74
; 0000 016D    case 2:
	CPI  R30,LOW(0x2)
	LDI  R26,HIGH(0x2)
	CPC  R31,R26
	BRNE _0x75
_0x74:
; 0000 016E    case 3:
	RJMP _0x76
_0x75:
	CPI  R30,LOW(0x3)
	LDI  R26,HIGH(0x3)
	CPC  R31,R26
	BRNE _0x77
_0x76:
; 0000 016F    case 4:
	RJMP _0x78
_0x77:
	CPI  R30,LOW(0x4)
	LDI  R26,HIGH(0x4)
	CPC  R31,R26
	BRNE _0x79
_0x78:
; 0000 0170    case 5:
	RJMP _0x7A
_0x79:
	CPI  R30,LOW(0x5)
	LDI  R26,HIGH(0x5)
	CPC  R31,R26
	BRNE _0x7B
_0x7A:
; 0000 0171    case 6:
	RJMP _0x7C
_0x7B:
	CPI  R30,LOW(0x6)
	LDI  R26,HIGH(0x6)
	CPC  R31,R26
	BRNE _0x7D
_0x7C:
; 0000 0172    if(sh_day==31)
	CALL SUBOPT_0x13
	SBIW R26,31
	BRNE _0x7E
; 0000 0173    {
; 0000 0174     sh_day=1;
	CALL SUBOPT_0x14
; 0000 0175     sh_month++;
; 0000 0176     if(sh_month==13)
	BRNE _0x7F
; 0000 0177         {
; 0000 0178          sh_month=1;
	CALL SUBOPT_0x15
; 0000 0179          sh_year++;
; 0000 017A         }
; 0000 017B    }
_0x7F:
; 0000 017C    break;
_0x7E:
	RJMP _0x72
; 0000 017D 
; 0000 017E    case 7:
_0x7D:
	CPI  R30,LOW(0x7)
	LDI  R26,HIGH(0x7)
	CPC  R31,R26
	BREQ _0x81
; 0000 017F    case 8:
	CPI  R30,LOW(0x8)
	LDI  R26,HIGH(0x8)
	CPC  R31,R26
	BRNE _0x82
_0x81:
; 0000 0180    case 9:
	RJMP _0x83
_0x82:
	CPI  R30,LOW(0x9)
	LDI  R26,HIGH(0x9)
	CPC  R31,R26
	BRNE _0x84
_0x83:
; 0000 0181    case 10:
	RJMP _0x85
_0x84:
	CPI  R30,LOW(0xA)
	LDI  R26,HIGH(0xA)
	CPC  R31,R26
	BRNE _0x86
_0x85:
; 0000 0182    case 11:
	RJMP _0x87
_0x86:
	CPI  R30,LOW(0xB)
	LDI  R26,HIGH(0xB)
	CPC  R31,R26
	BRNE _0x88
_0x87:
; 0000 0183     if(sh_day==30)
	CALL SUBOPT_0x13
	SBIW R26,30
	BRNE _0x89
; 0000 0184     {
; 0000 0185     sh_day=1;
	CALL SUBOPT_0x14
; 0000 0186     sh_month++;
; 0000 0187     if(sh_month==13)
	BRNE _0x8A
; 0000 0188         {
; 0000 0189          sh_month=1;
	CALL SUBOPT_0x15
; 0000 018A          sh_year++;
; 0000 018B         }
; 0000 018C     }
_0x8A:
; 0000 018D    break;
_0x89:
	RJMP _0x72
; 0000 018E 
; 0000 018F    case 12:
_0x88:
	CPI  R30,LOW(0xC)
	LDI  R26,HIGH(0xC)
	CPC  R31,R26
	BRNE _0x72
; 0000 0190     if(sh_day==29)
	CALL SUBOPT_0x13
	SBIW R26,29
	BRNE _0x8C
; 0000 0191     {
; 0000 0192      sh_day=1;
	CALL SUBOPT_0x16
; 0000 0193      sh_month=1;
; 0000 0194      sh_year++;
; 0000 0195     }
; 0000 0196   }
_0x8C:
_0x72:
; 0000 0197      }
; 0000 0198     }
_0x6E:
_0x6D:
; 0000 0199    }
; 0000 019A    }
_0x42:
; 0000 019B    else
	RJMP _0x8D
_0x41:
; 0000 019C     second=0;
	CLR  R4
	CLR  R5
; 0000 019D 
; 0000 019E    sh.iDay=sh_day;
_0x8D:
	CALL SUBOPT_0x19
; 0000 019F    sh.iMonth=sh_month;
; 0000 01A0    sh.iYear=sh_year;
; 0000 01A1    m=ShamsiToMiladi(sh.iMonth,sh.iDay,sh.iYear);
; 0000 01A2    ch_day=m.iDay;
; 0000 01A3    ch_month=m.iMonth;
; 0000 01A4    ch_year=m.iYear;
; 0000 01A5   break;
	RJMP _0x3F
; 0000 01A6 
; 0000 01A7   case 1:
_0x40:
	CPI  R30,LOW(0x1)
	LDI  R26,HIGH(0x1)
	CPC  R31,R26
	BREQ PC+2
	RJMP _0x8E
; 0000 01A8    minute++;
	MOVW R30,R8
	ADIW R30,1
	MOVW R8,R30
; 0000 01A9    if(minute>=60)
	LDI  R30,LOW(60)
	LDI  R31,HIGH(60)
	CP   R8,R30
	CPC  R9,R31
	BRGE PC+2
	RJMP _0x8F
; 0000 01AA    {
; 0000 01AB     hour++;
	MOVW R30,R6
	ADIW R30,1
	MOVW R6,R30
; 0000 01AC     minute=0;
	CLR  R8
	CLR  R9
; 0000 01AD     if(clock_mode==0)
	SBRC R2,0
	RJMP _0x90
; 0000 01AE     {
; 0000 01AF      if(am_pm=='a' && hour>=12)
	LDS  R26,_am_pm
	CPI  R26,LOW(0x61)
	BRNE _0x92
	CALL SUBOPT_0xE
	BRGE _0x93
_0x92:
	RJMP _0x91
_0x93:
; 0000 01B0      {
; 0000 01B1       am_pm='p';
	LDI  R30,LOW(112)
	STS  _am_pm,R30
; 0000 01B2      }
; 0000 01B3      else if(am_pm=='p' && hour>=13)
	RJMP _0x94
_0x91:
	LDS  R26,_am_pm
	CPI  R26,LOW(0x70)
	BRNE _0x96
	CALL SUBOPT_0xF
	BRGE _0x97
_0x96:
	RJMP _0x95
_0x97:
; 0000 01B4      {
; 0000 01B5       hour=1;
	LDI  R30,LOW(1)
	LDI  R31,HIGH(1)
	MOVW R6,R30
; 0000 01B6      }
; 0000 01B7      else if(am_pm=='p' && hour>=12)
	RJMP _0x98
_0x95:
	LDS  R26,_am_pm
	CPI  R26,LOW(0x70)
	BRNE _0x9A
	CALL SUBOPT_0xE
	BRGE _0x9B
_0x9A:
	RJMP _0x99
_0x9B:
; 0000 01B8      {
; 0000 01B9       am_pm='a';
	CALL SUBOPT_0x10
; 0000 01BA       hour=0;
; 0000 01BB       sh_day++;
; 0000 01BC       day_pointer++;
; 0000 01BD       if(day_pointer==7)
	BRNE _0x9C
; 0000 01BE         day_pointer=0;
	CALL SUBOPT_0x11
; 0000 01BF       //sh_day
; 0000 01C0        switch(sh_month)
_0x9C:
	CALL SUBOPT_0x12
; 0000 01C1        {
; 0000 01C2         case 1:
	BREQ _0xA1
; 0000 01C3         case 2:
	CPI  R30,LOW(0x2)
	LDI  R26,HIGH(0x2)
	CPC  R31,R26
	BRNE _0xA2
_0xA1:
; 0000 01C4         case 3:
	RJMP _0xA3
_0xA2:
	CPI  R30,LOW(0x3)
	LDI  R26,HIGH(0x3)
	CPC  R31,R26
	BRNE _0xA4
_0xA3:
; 0000 01C5         case 4:
	RJMP _0xA5
_0xA4:
	CPI  R30,LOW(0x4)
	LDI  R26,HIGH(0x4)
	CPC  R31,R26
	BRNE _0xA6
_0xA5:
; 0000 01C6         case 5:
	RJMP _0xA7
_0xA6:
	CPI  R30,LOW(0x5)
	LDI  R26,HIGH(0x5)
	CPC  R31,R26
	BRNE _0xA8
_0xA7:
; 0000 01C7         case 6:
	RJMP _0xA9
_0xA8:
	CPI  R30,LOW(0x6)
	LDI  R26,HIGH(0x6)
	CPC  R31,R26
	BRNE _0xAA
_0xA9:
; 0000 01C8         if(sh_day==32)
	CALL SUBOPT_0x13
	SBIW R26,32
	BRNE _0xAB
; 0000 01C9         {
; 0000 01CA         sh_day=1;
	CALL SUBOPT_0x14
; 0000 01CB         sh_month++;
; 0000 01CC         if(sh_month==13)
	BRNE _0xAC
; 0000 01CD         {
; 0000 01CE          sh_month=1;
	CALL SUBOPT_0x15
; 0000 01CF          sh_year++;
; 0000 01D0         }
; 0000 01D1         }
_0xAC:
; 0000 01D2         break;
_0xAB:
	RJMP _0x9F
; 0000 01D3 
; 0000 01D4         case 7:
_0xAA:
	CPI  R30,LOW(0x7)
	LDI  R26,HIGH(0x7)
	CPC  R31,R26
	BREQ _0xAE
; 0000 01D5         case 8:
	CPI  R30,LOW(0x8)
	LDI  R26,HIGH(0x8)
	CPC  R31,R26
	BRNE _0xAF
_0xAE:
; 0000 01D6         case 9:
	RJMP _0xB0
_0xAF:
	CPI  R30,LOW(0x9)
	LDI  R26,HIGH(0x9)
	CPC  R31,R26
	BRNE _0xB1
_0xB0:
; 0000 01D7         case 10:
	RJMP _0xB2
_0xB1:
	CPI  R30,LOW(0xA)
	LDI  R26,HIGH(0xA)
	CPC  R31,R26
	BRNE _0xB3
_0xB2:
; 0000 01D8         case 11:
	RJMP _0xB4
_0xB3:
	CPI  R30,LOW(0xB)
	LDI  R26,HIGH(0xB)
	CPC  R31,R26
	BRNE _0xB5
_0xB4:
; 0000 01D9          if(sh_day==31)
	CALL SUBOPT_0x13
	SBIW R26,31
	BRNE _0xB6
; 0000 01DA          {
; 0000 01DB          sh_day=1;
	CALL SUBOPT_0x14
; 0000 01DC          sh_month++;
; 0000 01DD          if(sh_month==13)
	BRNE _0xB7
; 0000 01DE         {
; 0000 01DF          sh_month=1;
	CALL SUBOPT_0x15
; 0000 01E0          sh_year++;
; 0000 01E1         }
; 0000 01E2          }
_0xB7:
; 0000 01E3         break;
_0xB6:
	RJMP _0x9F
; 0000 01E4 
; 0000 01E5         case 12:
_0xB5:
	CPI  R30,LOW(0xC)
	LDI  R26,HIGH(0xC)
	CPC  R31,R26
	BRNE _0x9F
; 0000 01E6          if(sh_day==30)
	CALL SUBOPT_0x13
	SBIW R26,30
	BRNE _0xB9
; 0000 01E7          {
; 0000 01E8          sh_day=1;
	CALL SUBOPT_0x16
; 0000 01E9          sh_month=1;
; 0000 01EA          sh_year++;
; 0000 01EB          }
; 0000 01EC        }
_0xB9:
_0x9F:
; 0000 01ED      }
; 0000 01EE     }
_0x99:
_0x98:
_0x94:
; 0000 01EF     else
	RJMP _0xBA
_0x90:
; 0000 01F0     {
; 0000 01F1      if(hour>=24)
	CALL SUBOPT_0x17
	BRGE PC+2
	RJMP _0xBB
; 0000 01F2      {
; 0000 01F3       hour=0;
	CALL SUBOPT_0x18
; 0000 01F4       sh_day++;
; 0000 01F5       day_pointer++;
; 0000 01F6       if(day_pointer==7)
	BRNE _0xBC
; 0000 01F7         day_pointer=0;
	CALL SUBOPT_0x11
; 0000 01F8       switch(sh_month)
_0xBC:
	CALL SUBOPT_0x12
; 0000 01F9    {
; 0000 01FA    case 1:
	BREQ _0xC1
; 0000 01FB    case 2:
	CPI  R30,LOW(0x2)
	LDI  R26,HIGH(0x2)
	CPC  R31,R26
	BRNE _0xC2
_0xC1:
; 0000 01FC    case 3:
	RJMP _0xC3
_0xC2:
	CPI  R30,LOW(0x3)
	LDI  R26,HIGH(0x3)
	CPC  R31,R26
	BRNE _0xC4
_0xC3:
; 0000 01FD    case 4:
	RJMP _0xC5
_0xC4:
	CPI  R30,LOW(0x4)
	LDI  R26,HIGH(0x4)
	CPC  R31,R26
	BRNE _0xC6
_0xC5:
; 0000 01FE    case 5:
	RJMP _0xC7
_0xC6:
	CPI  R30,LOW(0x5)
	LDI  R26,HIGH(0x5)
	CPC  R31,R26
	BRNE _0xC8
_0xC7:
; 0000 01FF    case 6:
	RJMP _0xC9
_0xC8:
	CPI  R30,LOW(0x6)
	LDI  R26,HIGH(0x6)
	CPC  R31,R26
	BRNE _0xCA
_0xC9:
; 0000 0200    if(sh_day==31)
	CALL SUBOPT_0x13
	SBIW R26,31
	BRNE _0xCB
; 0000 0201    {
; 0000 0202     sh_day=1;
	CALL SUBOPT_0x14
; 0000 0203     sh_month++;
; 0000 0204     if(sh_month==13)
	BRNE _0xCC
; 0000 0205         {
; 0000 0206          sh_month=1;
	CALL SUBOPT_0x15
; 0000 0207          sh_year++;
; 0000 0208         }
; 0000 0209    }
_0xCC:
; 0000 020A    break;
_0xCB:
	RJMP _0xBF
; 0000 020B 
; 0000 020C    case 7:
_0xCA:
	CPI  R30,LOW(0x7)
	LDI  R26,HIGH(0x7)
	CPC  R31,R26
	BREQ _0xCE
; 0000 020D    case 8:
	CPI  R30,LOW(0x8)
	LDI  R26,HIGH(0x8)
	CPC  R31,R26
	BRNE _0xCF
_0xCE:
; 0000 020E    case 9:
	RJMP _0xD0
_0xCF:
	CPI  R30,LOW(0x9)
	LDI  R26,HIGH(0x9)
	CPC  R31,R26
	BRNE _0xD1
_0xD0:
; 0000 020F    case 10:
	RJMP _0xD2
_0xD1:
	CPI  R30,LOW(0xA)
	LDI  R26,HIGH(0xA)
	CPC  R31,R26
	BRNE _0xD3
_0xD2:
; 0000 0210    case 11:
	RJMP _0xD4
_0xD3:
	CPI  R30,LOW(0xB)
	LDI  R26,HIGH(0xB)
	CPC  R31,R26
	BRNE _0xD5
_0xD4:
; 0000 0211     if(sh_day==30)
	CALL SUBOPT_0x13
	SBIW R26,30
	BRNE _0xD6
; 0000 0212     {
; 0000 0213     sh_day=1;
	CALL SUBOPT_0x14
; 0000 0214     sh_month++;
; 0000 0215     if(sh_month==13)
	BRNE _0xD7
; 0000 0216         {
; 0000 0217          sh_month=1;
	CALL SUBOPT_0x15
; 0000 0218          sh_year++;
; 0000 0219         }
; 0000 021A     }
_0xD7:
; 0000 021B    break;
_0xD6:
	RJMP _0xBF
; 0000 021C 
; 0000 021D    case 12:
_0xD5:
	CPI  R30,LOW(0xC)
	LDI  R26,HIGH(0xC)
	CPC  R31,R26
	BRNE _0xBF
; 0000 021E     if(sh_day==29)
	CALL SUBOPT_0x13
	SBIW R26,29
	BRNE _0xD9
; 0000 021F     {
; 0000 0220      sh_day=1;
	CALL SUBOPT_0x16
; 0000 0221      sh_month=1;
; 0000 0222      sh_year++;
; 0000 0223     }
; 0000 0224   }
_0xD9:
_0xBF:
; 0000 0225      }
; 0000 0226     }
_0xBB:
_0xBA:
; 0000 0227    }
; 0000 0228 
; 0000 0229    sh.iDay=sh_day;
_0x8F:
	CALL SUBOPT_0x19
; 0000 022A    sh.iMonth=sh_month;
; 0000 022B    sh.iYear=sh_year;
; 0000 022C    m=ShamsiToMiladi(sh.iMonth,sh.iDay,sh.iYear);
; 0000 022D    ch_day=m.iDay;
; 0000 022E    ch_month=m.iMonth;
; 0000 022F    ch_year=m.iYear;
; 0000 0230   break;
	RJMP _0x3F
; 0000 0231 
; 0000 0232   case 2:
_0x8E:
	CPI  R30,LOW(0x2)
	LDI  R26,HIGH(0x2)
	CPC  R31,R26
	BREQ PC+2
	RJMP _0xDA
; 0000 0233    hour++;
	MOVW R30,R6
	ADIW R30,1
	MOVW R6,R30
; 0000 0234    if(clock_mode==0)
	SBRC R2,0
	RJMP _0xDB
; 0000 0235    {
; 0000 0236     if(am_pm=='a' && hour>=12)
	LDS  R26,_am_pm
	CPI  R26,LOW(0x61)
	BRNE _0xDD
	CALL SUBOPT_0xE
	BRGE _0xDE
_0xDD:
	RJMP _0xDC
_0xDE:
; 0000 0237     {
; 0000 0238     am_pm='p';
	LDI  R30,LOW(112)
	STS  _am_pm,R30
; 0000 0239     }
; 0000 023A     else if(am_pm=='p' && hour>=13)
	RJMP _0xDF
_0xDC:
	LDS  R26,_am_pm
	CPI  R26,LOW(0x70)
	BRNE _0xE1
	CALL SUBOPT_0xF
	BRGE _0xE2
_0xE1:
	RJMP _0xE0
_0xE2:
; 0000 023B     {
; 0000 023C      hour=1;
	LDI  R30,LOW(1)
	LDI  R31,HIGH(1)
	MOVW R6,R30
; 0000 023D     }
; 0000 023E     else if(am_pm=='p' && hour>=12)
	RJMP _0xE3
_0xE0:
	LDS  R26,_am_pm
	CPI  R26,LOW(0x70)
	BRNE _0xE5
	CALL SUBOPT_0xE
	BRGE _0xE6
_0xE5:
	RJMP _0xE4
_0xE6:
; 0000 023F     {
; 0000 0240     sh_day++;
	CALL SUBOPT_0x1A
; 0000 0241     day_pointer++;
; 0000 0242     if(day_pointer==7)
	BRNE _0xE7
; 0000 0243      day_pointer=0;
	CALL SUBOPT_0x11
; 0000 0244     am_pm='a';
_0xE7:
	LDI  R30,LOW(97)
	STS  _am_pm,R30
; 0000 0245     hour=0;
	CLR  R6
	CLR  R7
; 0000 0246 
; 0000 0247     //sh_day
; 0000 0248     switch(sh_month)
	CALL SUBOPT_0x12
; 0000 0249     {
; 0000 024A      case 1:
	BREQ _0xEC
; 0000 024B      case 2:
	CPI  R30,LOW(0x2)
	LDI  R26,HIGH(0x2)
	CPC  R31,R26
	BRNE _0xED
_0xEC:
; 0000 024C      case 3:
	RJMP _0xEE
_0xED:
	CPI  R30,LOW(0x3)
	LDI  R26,HIGH(0x3)
	CPC  R31,R26
	BRNE _0xEF
_0xEE:
; 0000 024D      case 4:
	RJMP _0xF0
_0xEF:
	CPI  R30,LOW(0x4)
	LDI  R26,HIGH(0x4)
	CPC  R31,R26
	BRNE _0xF1
_0xF0:
; 0000 024E      case 5:
	RJMP _0xF2
_0xF1:
	CPI  R30,LOW(0x5)
	LDI  R26,HIGH(0x5)
	CPC  R31,R26
	BRNE _0xF3
_0xF2:
; 0000 024F      case 6:
	RJMP _0xF4
_0xF3:
	CPI  R30,LOW(0x6)
	LDI  R26,HIGH(0x6)
	CPC  R31,R26
	BRNE _0xF5
_0xF4:
; 0000 0250       if(sh_day==32)
	CALL SUBOPT_0x13
	SBIW R26,32
	BRNE _0xF6
; 0000 0251       {
; 0000 0252        sh_day=1;
	CALL SUBOPT_0x1B
; 0000 0253        sh_month++;
; 0000 0254 
; 0000 0255       }
; 0000 0256       break;
_0xF6:
	RJMP _0xEA
; 0000 0257      case 7:
_0xF5:
	CPI  R30,LOW(0x7)
	LDI  R26,HIGH(0x7)
	CPC  R31,R26
	BREQ _0xF8
; 0000 0258      case 8:
	CPI  R30,LOW(0x8)
	LDI  R26,HIGH(0x8)
	CPC  R31,R26
	BRNE _0xF9
_0xF8:
; 0000 0259      case 9:
	RJMP _0xFA
_0xF9:
	CPI  R30,LOW(0x9)
	LDI  R26,HIGH(0x9)
	CPC  R31,R26
	BRNE _0xFB
_0xFA:
; 0000 025A      case 10:
	RJMP _0xFC
_0xFB:
	CPI  R30,LOW(0xA)
	LDI  R26,HIGH(0xA)
	CPC  R31,R26
	BRNE _0xFD
_0xFC:
; 0000 025B      case 11:
	RJMP _0xFE
_0xFD:
	CPI  R30,LOW(0xB)
	LDI  R26,HIGH(0xB)
	CPC  R31,R26
	BRNE _0xFF
_0xFE:
; 0000 025C       if(sh_day==31)
	CALL SUBOPT_0x13
	SBIW R26,31
	BRNE _0x100
; 0000 025D       {
; 0000 025E        sh_day=1;
	CALL SUBOPT_0x1B
; 0000 025F        sh_month++;
; 0000 0260       }
; 0000 0261      break;
_0x100:
	RJMP _0xEA
; 0000 0262 
; 0000 0263      case 12:
_0xFF:
	CPI  R30,LOW(0xC)
	LDI  R26,HIGH(0xC)
	CPC  R31,R26
	BRNE _0xEA
; 0000 0264       if(sh_day==30)
	CALL SUBOPT_0x13
	SBIW R26,30
	BRNE _0x102
; 0000 0265       {
; 0000 0266        sh_day=1;
	CALL SUBOPT_0x16
; 0000 0267        sh_month=1;
; 0000 0268        sh_year++;
; 0000 0269       }
; 0000 026A     }
_0x102:
_0xEA:
; 0000 026B     }
; 0000 026C     }
_0xE4:
_0xE3:
_0xDF:
; 0000 026D     else
	RJMP _0x103
_0xDB:
; 0000 026E     {
; 0000 026F      if(hour>=24)
	CALL SUBOPT_0x17
	BRGE PC+2
	RJMP _0x104
; 0000 0270      {
; 0000 0271       hour=0;
	CALL SUBOPT_0x18
; 0000 0272       sh_day++;
; 0000 0273       day_pointer++;
; 0000 0274       if(day_pointer==7)
	BRNE _0x105
; 0000 0275        day_pointer=0;
	CALL SUBOPT_0x11
; 0000 0276       switch(sh_month)
_0x105:
	CALL SUBOPT_0x12
; 0000 0277     {
; 0000 0278      case 1:
	BREQ _0x10A
; 0000 0279      case 2:
	CPI  R30,LOW(0x2)
	LDI  R26,HIGH(0x2)
	CPC  R31,R26
	BRNE _0x10B
_0x10A:
; 0000 027A      case 3:
	RJMP _0x10C
_0x10B:
	CPI  R30,LOW(0x3)
	LDI  R26,HIGH(0x3)
	CPC  R31,R26
	BRNE _0x10D
_0x10C:
; 0000 027B      case 4:
	RJMP _0x10E
_0x10D:
	CPI  R30,LOW(0x4)
	LDI  R26,HIGH(0x4)
	CPC  R31,R26
	BRNE _0x10F
_0x10E:
; 0000 027C      case 5:
	RJMP _0x110
_0x10F:
	CPI  R30,LOW(0x5)
	LDI  R26,HIGH(0x5)
	CPC  R31,R26
	BRNE _0x111
_0x110:
; 0000 027D      case 6:
	RJMP _0x112
_0x111:
	CPI  R30,LOW(0x6)
	LDI  R26,HIGH(0x6)
	CPC  R31,R26
	BRNE _0x113
_0x112:
; 0000 027E       if(sh_day==32)
	CALL SUBOPT_0x13
	SBIW R26,32
	BRNE _0x114
; 0000 027F       {
; 0000 0280        sh_day=1;
	CALL SUBOPT_0x14
; 0000 0281        sh_month++;
; 0000 0282        if(sh_month==13)
	BRNE _0x115
; 0000 0283         {
; 0000 0284          sh_month=1;
	CALL SUBOPT_0x15
; 0000 0285          sh_year++;
; 0000 0286         }
; 0000 0287       }
_0x115:
; 0000 0288       break;
_0x114:
	RJMP _0x108
; 0000 0289      case 7:
_0x113:
	CPI  R30,LOW(0x7)
	LDI  R26,HIGH(0x7)
	CPC  R31,R26
	BREQ _0x117
; 0000 028A      case 8:
	CPI  R30,LOW(0x8)
	LDI  R26,HIGH(0x8)
	CPC  R31,R26
	BRNE _0x118
_0x117:
; 0000 028B      case 9:
	RJMP _0x119
_0x118:
	CPI  R30,LOW(0x9)
	LDI  R26,HIGH(0x9)
	CPC  R31,R26
	BRNE _0x11A
_0x119:
; 0000 028C      case 10:
	RJMP _0x11B
_0x11A:
	CPI  R30,LOW(0xA)
	LDI  R26,HIGH(0xA)
	CPC  R31,R26
	BRNE _0x11C
_0x11B:
; 0000 028D      case 11:
	RJMP _0x11D
_0x11C:
	CPI  R30,LOW(0xB)
	LDI  R26,HIGH(0xB)
	CPC  R31,R26
	BRNE _0x11E
_0x11D:
; 0000 028E       if(sh_day==31)
	CALL SUBOPT_0x13
	SBIW R26,31
	BRNE _0x11F
; 0000 028F       {
; 0000 0290        sh_day=1;
	CALL SUBOPT_0x1B
; 0000 0291        sh_month++;
; 0000 0292       }
; 0000 0293      break;
_0x11F:
	RJMP _0x108
; 0000 0294 
; 0000 0295      case 12:
_0x11E:
	CPI  R30,LOW(0xC)
	LDI  R26,HIGH(0xC)
	CPC  R31,R26
	BRNE _0x108
; 0000 0296       if(sh_day==30)
	CALL SUBOPT_0x13
	SBIW R26,30
	BRNE _0x121
; 0000 0297       {
; 0000 0298        sh_day=1;
	CALL SUBOPT_0x16
; 0000 0299        sh_month=1;
; 0000 029A        sh_year++;
; 0000 029B       }
; 0000 029C     }
_0x121:
_0x108:
; 0000 029D      }
; 0000 029E     }
_0x104:
_0x103:
; 0000 029F 
; 0000 02A0     sh.iDay=sh_day;
	CALL SUBOPT_0x19
; 0000 02A1     sh.iMonth=sh_month;
; 0000 02A2     sh.iYear=sh_year;
; 0000 02A3     m=ShamsiToMiladi(sh.iMonth,sh.iDay,sh.iYear);
; 0000 02A4     ch_day=m.iDay;
; 0000 02A5     ch_month=m.iMonth;
; 0000 02A6     ch_year=m.iYear;
; 0000 02A7   break;
	RJMP _0x3F
; 0000 02A8 
; 0000 02A9   case 3:
_0xDA:
	CPI  R30,LOW(0x3)
	LDI  R26,HIGH(0x3)
	CPC  R31,R26
	BREQ PC+2
	RJMP _0x122
; 0000 02AA    sh_day++;
	CALL SUBOPT_0x1A
; 0000 02AB    day_pointer++;
; 0000 02AC    if(day_pointer==7)
	BRNE _0x123
; 0000 02AD     day_pointer=0;
	CALL SUBOPT_0x11
; 0000 02AE    switch(sh_month)
_0x123:
	CALL SUBOPT_0x12
; 0000 02AF    {
; 0000 02B0    case 1:
	BREQ _0x128
; 0000 02B1    case 2:
	CPI  R30,LOW(0x2)
	LDI  R26,HIGH(0x2)
	CPC  R31,R26
	BRNE _0x129
_0x128:
; 0000 02B2    case 3:
	RJMP _0x12A
_0x129:
	CPI  R30,LOW(0x3)
	LDI  R26,HIGH(0x3)
	CPC  R31,R26
	BRNE _0x12B
_0x12A:
; 0000 02B3    case 4:
	RJMP _0x12C
_0x12B:
	CPI  R30,LOW(0x4)
	LDI  R26,HIGH(0x4)
	CPC  R31,R26
	BRNE _0x12D
_0x12C:
; 0000 02B4    case 5:
	RJMP _0x12E
_0x12D:
	CPI  R30,LOW(0x5)
	LDI  R26,HIGH(0x5)
	CPC  R31,R26
	BRNE _0x12F
_0x12E:
; 0000 02B5    case 6:
	RJMP _0x130
_0x12F:
	CPI  R30,LOW(0x6)
	LDI  R26,HIGH(0x6)
	CPC  R31,R26
	BRNE _0x131
_0x130:
; 0000 02B6    if(sh_day==32)
	CALL SUBOPT_0x13
	SBIW R26,32
	BRNE _0x132
; 0000 02B7    {
; 0000 02B8     sh_day=1;
	CALL SUBOPT_0x1B
; 0000 02B9     sh_month++;
; 0000 02BA 
; 0000 02BB    }
; 0000 02BC    break;
_0x132:
	RJMP _0x126
; 0000 02BD 
; 0000 02BE    case 7:
_0x131:
	CPI  R30,LOW(0x7)
	LDI  R26,HIGH(0x7)
	CPC  R31,R26
	BREQ _0x134
; 0000 02BF    case 8:
	CPI  R30,LOW(0x8)
	LDI  R26,HIGH(0x8)
	CPC  R31,R26
	BRNE _0x135
_0x134:
; 0000 02C0    case 9:
	RJMP _0x136
_0x135:
	CPI  R30,LOW(0x9)
	LDI  R26,HIGH(0x9)
	CPC  R31,R26
	BRNE _0x137
_0x136:
; 0000 02C1    case 10:
	RJMP _0x138
_0x137:
	CPI  R30,LOW(0xA)
	LDI  R26,HIGH(0xA)
	CPC  R31,R26
	BRNE _0x139
_0x138:
; 0000 02C2    case 11:
	RJMP _0x13A
_0x139:
	CPI  R30,LOW(0xB)
	LDI  R26,HIGH(0xB)
	CPC  R31,R26
	BRNE _0x13B
_0x13A:
; 0000 02C3     if(sh_day==31)
	CALL SUBOPT_0x13
	SBIW R26,31
	BRNE _0x13C
; 0000 02C4     {
; 0000 02C5     sh_day=1;
	CALL SUBOPT_0x1B
; 0000 02C6     sh_month++;
; 0000 02C7     }
; 0000 02C8    break;
_0x13C:
	RJMP _0x126
; 0000 02C9 
; 0000 02CA    case 12:
_0x13B:
	CPI  R30,LOW(0xC)
	LDI  R26,HIGH(0xC)
	CPC  R31,R26
	BRNE _0x126
; 0000 02CB     if(sh_day==30)
	CALL SUBOPT_0x13
	SBIW R26,30
	BRNE _0x13E
; 0000 02CC     {
; 0000 02CD      sh_day=1;
	CALL SUBOPT_0x16
; 0000 02CE      sh_month=1;
; 0000 02CF      sh_year++;
; 0000 02D0     }
; 0000 02D1   }
_0x13E:
_0x126:
; 0000 02D2 
; 0000 02D3    sh.iDay=sh_day;
	CALL SUBOPT_0x19
; 0000 02D4    sh.iMonth=sh_month;
; 0000 02D5    sh.iYear=sh_year;
; 0000 02D6    m=ShamsiToMiladi(sh.iMonth,sh.iDay,sh.iYear);
; 0000 02D7    ch_day=m.iDay;
; 0000 02D8    ch_month=m.iMonth;
; 0000 02D9    ch_year=m.iYear;
; 0000 02DA   break;
	RJMP _0x3F
; 0000 02DB 
; 0000 02DC   case 4:
_0x122:
	CPI  R30,LOW(0x4)
	LDI  R26,HIGH(0x4)
	CPC  R31,R26
	BRNE _0x13F
; 0000 02DD    sh_month++;
	LDI  R26,LOW(_sh_month)
	LDI  R27,HIGH(_sh_month)
	CALL SUBOPT_0x1C
; 0000 02DE    if(sh_month==13)
	LDS  R26,_sh_month
	LDS  R27,_sh_month+1
	SBIW R26,13
	BRNE _0x140
; 0000 02DF    {
; 0000 02E0     sh_month=1;
	CALL SUBOPT_0x15
; 0000 02E1     sh_year++;
; 0000 02E2    }
; 0000 02E3 
; 0000 02E4    sh.iDay=sh_day;
_0x140:
	CALL SUBOPT_0x19
; 0000 02E5    sh.iMonth=sh_month;
; 0000 02E6    sh.iYear=sh_year;
; 0000 02E7    m=ShamsiToMiladi(sh.iMonth,sh.iDay,sh.iYear);
; 0000 02E8    ch_day=m.iDay;
; 0000 02E9    ch_month=m.iMonth;
; 0000 02EA    ch_year=m.iYear;
; 0000 02EB   break;
	RJMP _0x3F
; 0000 02EC 
; 0000 02ED   case 5:
_0x13F:
	CPI  R30,LOW(0x5)
	LDI  R26,HIGH(0x5)
	CPC  R31,R26
	BRNE _0x141
; 0000 02EE    sh_year++;
	LDI  R26,LOW(_sh_year)
	LDI  R27,HIGH(_sh_year)
	CALL SUBOPT_0x1C
; 0000 02EF    sh.iDay=sh_day;
	CALL SUBOPT_0x19
; 0000 02F0    sh.iMonth=sh_month;
; 0000 02F1    sh.iYear=sh_year;
; 0000 02F2    m=ShamsiToMiladi(sh.iMonth,sh.iDay,sh.iYear);
; 0000 02F3    ch_day=m.iDay;
; 0000 02F4    ch_month=m.iMonth;
; 0000 02F5    ch_year=m.iYear;
; 0000 02F6   break;
	RJMP _0x3F
; 0000 02F7 
; 0000 02F8   case 6:
_0x141:
	CPI  R30,LOW(0x6)
	LDI  R26,HIGH(0x6)
	CPC  R31,R26
	BREQ PC+2
	RJMP _0x142
; 0000 02F9    ch_day++;
	CALL SUBOPT_0x1D
; 0000 02FA    day_pointer++;
	LDI  R26,LOW(_day_pointer)
	LDI  R27,HIGH(_day_pointer)
	CALL SUBOPT_0x1C
; 0000 02FB    if(day_pointer==7)
	LDS  R26,_day_pointer
	LDS  R27,_day_pointer+1
	SBIW R26,7
	BRNE _0x143
; 0000 02FC     day_pointer=0;
	CALL SUBOPT_0x11
; 0000 02FD    switch(ch_month)
_0x143:
	CALL SUBOPT_0x1E
; 0000 02FE    {
; 0000 02FF    case 1:
	CPI  R30,LOW(0x1)
	LDI  R26,HIGH(0x1)
	CPC  R31,R26
	BREQ _0x148
; 0000 0300    case 3:
	CPI  R30,LOW(0x3)
	LDI  R26,HIGH(0x3)
	CPC  R31,R26
	BRNE _0x149
_0x148:
; 0000 0301    case 5:
	RJMP _0x14A
_0x149:
	CPI  R30,LOW(0x5)
	LDI  R26,HIGH(0x5)
	CPC  R31,R26
	BRNE _0x14B
_0x14A:
; 0000 0302    case 7:
	RJMP _0x14C
_0x14B:
	CPI  R30,LOW(0x7)
	LDI  R26,HIGH(0x7)
	CPC  R31,R26
	BRNE _0x14D
_0x14C:
; 0000 0303    case 8:
	RJMP _0x14E
_0x14D:
	CPI  R30,LOW(0x8)
	LDI  R26,HIGH(0x8)
	CPC  R31,R26
	BRNE _0x14F
_0x14E:
; 0000 0304    case 10:
	RJMP _0x150
_0x14F:
	CPI  R30,LOW(0xA)
	LDI  R26,HIGH(0xA)
	CPC  R31,R26
	BRNE _0x151
_0x150:
; 0000 0305    case 12:
	RJMP _0x152
_0x151:
	CPI  R30,LOW(0xC)
	LDI  R26,HIGH(0xC)
	CPC  R31,R26
	BRNE _0x153
_0x152:
; 0000 0306    if(ch_day==32)
	CALL SUBOPT_0x1F
	SBIW R26,32
	BRNE _0x154
; 0000 0307    {
; 0000 0308     ch_day=1;
	CALL SUBOPT_0x20
; 0000 0309     ch_month++;
; 0000 030A     if(ch_month==13)
	CALL SUBOPT_0x21
	BRNE _0x155
; 0000 030B         {
; 0000 030C          ch_month=1;
	CALL SUBOPT_0x22
; 0000 030D          ch_year++;
; 0000 030E         }
; 0000 030F    }
_0x155:
; 0000 0310    break;
_0x154:
	RJMP _0x146
; 0000 0311 
; 0000 0312    case 6:
_0x153:
	CPI  R30,LOW(0x6)
	LDI  R26,HIGH(0x6)
	CPC  R31,R26
	BREQ _0x157
; 0000 0313    case 4:
	CPI  R30,LOW(0x4)
	LDI  R26,HIGH(0x4)
	CPC  R31,R26
	BRNE _0x158
_0x157:
; 0000 0314    case 9:
	RJMP _0x159
_0x158:
	CPI  R30,LOW(0x9)
	LDI  R26,HIGH(0x9)
	CPC  R31,R26
	BRNE _0x15A
_0x159:
; 0000 0315    case 11:
	RJMP _0x15B
_0x15A:
	CPI  R30,LOW(0xB)
	LDI  R26,HIGH(0xB)
	CPC  R31,R26
	BRNE _0x15C
_0x15B:
; 0000 0316     if(ch_day==31)
	CALL SUBOPT_0x1F
	SBIW R26,31
	BRNE _0x15D
; 0000 0317     {
; 0000 0318     ch_day=1;
	CALL SUBOPT_0x20
; 0000 0319     ch_month++;
; 0000 031A     }
; 0000 031B    break;
_0x15D:
	RJMP _0x146
; 0000 031C    case 2:
_0x15C:
	CPI  R30,LOW(0x2)
	LDI  R26,HIGH(0x2)
	CPC  R31,R26
	BRNE _0x146
; 0000 031D     if(ch_day==30)
	CALL SUBOPT_0x1F
	SBIW R26,30
	BRNE _0x15F
; 0000 031E     {
; 0000 031F      ch_day=1;
	CALL SUBOPT_0x20
; 0000 0320      ch_month++;
; 0000 0321     }
; 0000 0322    break;
_0x15F:
; 0000 0323   }
_0x146:
; 0000 0324 
; 0000 0325    m.iDay=ch_day;
	CALL SUBOPT_0x23
; 0000 0326    m.iMonth=ch_month;
; 0000 0327    m.iYear=ch_year;
; 0000 0328    sh=MiladiToShamsi(m.iMonth,m.iDay,m.iYear);
; 0000 0329 
; 0000 032A    sh_day=sh.iDay;
; 0000 032B    sh_month=sh.iMonth;
; 0000 032C    sh_year=sh.iYear;
; 0000 032D   break;
	RJMP _0x3F
; 0000 032E 
; 0000 032F   case 7:
_0x142:
	CPI  R30,LOW(0x7)
	LDI  R26,HIGH(0x7)
	CPC  R31,R26
	BRNE _0x160
; 0000 0330    ch_month++;
	LDI  R26,LOW(_ch_month)
	LDI  R27,HIGH(_ch_month)
	CALL SUBOPT_0x1C
; 0000 0331    if(ch_month==13)
	CALL SUBOPT_0x21
	BRNE _0x161
; 0000 0332    {
; 0000 0333     ch_month=1;
	CALL SUBOPT_0x22
; 0000 0334     ch_year++;
; 0000 0335    }
; 0000 0336 
; 0000 0337    m.iDay=ch_day;
_0x161:
	CALL SUBOPT_0x23
; 0000 0338    m.iMonth=ch_month;
; 0000 0339    m.iYear=ch_year;
; 0000 033A    sh=MiladiToShamsi(m.iMonth,m.iDay,m.iYear);
; 0000 033B 
; 0000 033C    sh_day=sh.iDay;
; 0000 033D    sh_month=sh.iMonth;
; 0000 033E    sh_year=sh.iYear;
; 0000 033F   break;
	RJMP _0x3F
; 0000 0340 
; 0000 0341   case 8:
_0x160:
	CPI  R30,LOW(0x8)
	LDI  R26,HIGH(0x8)
	CPC  R31,R26
	BRNE _0x162
; 0000 0342    ch_year++;
	LDI  R26,LOW(_ch_year)
	LDI  R27,HIGH(_ch_year)
	CALL SUBOPT_0x1C
; 0000 0343    m.iDay=ch_day;
	CALL SUBOPT_0x23
; 0000 0344    m.iMonth=ch_month;
; 0000 0345    m.iYear=ch_year;
; 0000 0346    sh=MiladiToShamsi(m.iMonth,m.iDay,m.iYear);
; 0000 0347 
; 0000 0348    sh_day=sh.iDay;
; 0000 0349    sh_month=sh.iMonth;
; 0000 034A    sh_year=sh.iYear;
; 0000 034B   break;
	RJMP _0x3F
; 0000 034C 
; 0000 034D   case 9:
_0x162:
	CPI  R30,LOW(0x9)
	LDI  R26,HIGH(0x9)
	CPC  R31,R26
	BRNE _0x163
; 0000 034E    ch_month++;
	LDI  R26,LOW(_ch_month)
	LDI  R27,HIGH(_ch_month)
	CALL SUBOPT_0x1C
; 0000 034F    if(ch_month==13)
	CALL SUBOPT_0x21
	BRNE _0x164
; 0000 0350    {
; 0000 0351     ch_month=1;
	CALL SUBOPT_0x22
; 0000 0352     ch_year++;
; 0000 0353    }
; 0000 0354 
; 0000 0355    m.iDay=ch_day;
_0x164:
	CALL SUBOPT_0x23
; 0000 0356    m.iMonth=ch_month;
; 0000 0357    m.iYear=ch_year;
; 0000 0358    sh=MiladiToShamsi(m.iMonth,m.iDay,m.iYear);
; 0000 0359 
; 0000 035A    sh_day=sh.iDay;
; 0000 035B    sh_month=sh.iMonth;
; 0000 035C    sh_year=sh.iYear;
; 0000 035D   break;
	RJMP _0x3F
; 0000 035E 
; 0000 035F   case 10:
_0x163:
	CPI  R30,LOW(0xA)
	LDI  R26,HIGH(0xA)
	CPC  R31,R26
	BRNE _0x3F
; 0000 0360    day_pointer++;
	LDI  R26,LOW(_day_pointer)
	LDI  R27,HIGH(_day_pointer)
	CALL SUBOPT_0x1C
; 0000 0361    if(day_pointer==7)
	LDS  R26,_day_pointer
	LDS  R27,_day_pointer+1
	SBIW R26,7
	BRNE _0x166
; 0000 0362     day_pointer=0;
	CALL SUBOPT_0x11
; 0000 0363    glcd_outtextxy(10,30,miladi_day[day_pointer]);
_0x166:
	CALL SUBOPT_0x24
	MOVW R26,R30
	CALL _glcd_outtextxy
; 0000 0364   break;
; 0000 0365  }
_0x3F:
; 0000 0366 
; 0000 0367  glcd_outtextxy(10,20,miladi_month[ch_month-1]);
	CALL SUBOPT_0x25
	MOVW R26,R30
	CALL _glcd_outtextxy
; 0000 0368 }
	RJMP _0x2120012
; .FEND
;
;void selection_s(int s)
; 0000 036B {
_selection_s:
; .FSTART _selection_s
; 0000 036C if(clock_mode==1)
	ST   -Y,R27
	ST   -Y,R26
;	s -> Y+0
	SBRS R2,0
	RJMP _0x167
; 0000 036D {
; 0000 036E switch(s)
	LD   R30,Y
	LDD  R31,Y+1
; 0000 036F  {
; 0000 0370   case 0: glcd_outtextxy(0,111,"---------------------++-----------------");
	SBIW R30,0
	BRNE _0x16B
	CALL SUBOPT_0x26
	__POINTW2MN _0x16C,0
	CALL SUBOPT_0x27
; 0000 0371           glcd_outtextxy(0,30," ");
	LDI  R30,LOW(30)
	ST   -Y,R30
	__POINTW2MN _0x16C,41
	RJMP _0x222
; 0000 0372           break;
; 0000 0373   case 1: glcd_outtextxy(0,111,"------------------++--------------------"); break;
_0x16B:
	CPI  R30,LOW(0x1)
	LDI  R26,HIGH(0x1)
	CPC  R31,R26
	BRNE _0x16D
	CALL SUBOPT_0x26
	__POINTW2MN _0x16C,43
	RJMP _0x222
; 0000 0374   case 2: glcd_outtextxy(0,111,"---------------++-----------------------"); break;
_0x16D:
	CPI  R30,LOW(0x2)
	LDI  R26,HIGH(0x2)
	CPC  R31,R26
	BRNE _0x16E
	CALL SUBOPT_0x26
	__POINTW2MN _0x16C,84
	RJMP _0x222
; 0000 0375   case 3: glcd_outtextxy(0,111,"--------------------------------------++"); break;
_0x16E:
	CPI  R30,LOW(0x3)
	LDI  R26,HIGH(0x3)
	CPC  R31,R26
	BRNE _0x16F
	CALL SUBOPT_0x26
	__POINTW2MN _0x16C,125
	RJMP _0x222
; 0000 0376   case 4: glcd_outtextxy(0,111,"-----------------------------------++---"); break;
_0x16F:
	CPI  R30,LOW(0x4)
	LDI  R26,HIGH(0x4)
	CPC  R31,R26
	BRNE _0x170
	CALL SUBOPT_0x26
	__POINTW2MN _0x16C,166
	RJMP _0x222
; 0000 0377   case 5: glcd_outtextxy(0,111,"------------------------------++++------"); break;
_0x170:
	CPI  R30,LOW(0x5)
	LDI  R26,HIGH(0x5)
	CPC  R31,R26
	BRNE _0x171
	CALL SUBOPT_0x26
	__POINTW2MN _0x16C,207
	RJMP _0x222
; 0000 0378   case 6: glcd_outtextxy(0,111,"--------++------------------------------"); break;
_0x171:
	CPI  R30,LOW(0x6)
	LDI  R26,HIGH(0x6)
	CPC  R31,R26
	BRNE _0x172
	CALL SUBOPT_0x26
	__POINTW2MN _0x16C,248
	RJMP _0x222
; 0000 0379   case 7: glcd_outtextxy(0,111,"-----++---------------------------------"); break;
_0x172:
	CPI  R30,LOW(0x7)
	LDI  R26,HIGH(0x7)
	CPC  R31,R26
	BRNE _0x173
	CALL SUBOPT_0x26
	__POINTW2MN _0x16C,289
	RJMP _0x222
; 0000 037A   case 8: glcd_outtextxy(0,111,"++++------------------------------------"); break;
_0x173:
	CPI  R30,LOW(0x8)
	LDI  R26,HIGH(0x8)
	CPC  R31,R26
	BRNE _0x174
	CALL SUBOPT_0x26
	__POINTW2MN _0x16C,330
	RJMP _0x222
; 0000 037B   case 9: glcd_outtextxy(0,111,"----------------------------------------");
_0x174:
	CPI  R30,LOW(0x9)
	LDI  R26,HIGH(0x9)
	CPC  R31,R26
	BRNE _0x175
	CALL SUBOPT_0x26
	__POINTW2MN _0x16C,371
	CALL SUBOPT_0x27
; 0000 037C           glcd_outtextxy(0,20,"+");
	LDI  R30,LOW(20)
	ST   -Y,R30
	__POINTW2MN _0x16C,412
	RJMP _0x222
; 0000 037D           break;
; 0000 037E   case 10: glcd_outtextxy(0,30,"+");
_0x175:
	CPI  R30,LOW(0xA)
	LDI  R26,HIGH(0xA)
	CPC  R31,R26
	BRNE _0x16A
	LDI  R30,LOW(0)
	ST   -Y,R30
	LDI  R30,LOW(30)
	ST   -Y,R30
	__POINTW2MN _0x16C,414
	CALL SUBOPT_0x27
; 0000 037F            glcd_outtextxy(0,20," ");
	LDI  R30,LOW(20)
	ST   -Y,R30
	__POINTW2MN _0x16C,416
_0x222:
	CALL _glcd_outtextxy
; 0000 0380            break;
; 0000 0381  }
_0x16A:
; 0000 0382 }
; 0000 0383 else
	RJMP _0x177
_0x167:
; 0000 0384 {
; 0000 0385  switch(s)
	LD   R30,Y
	LDD  R31,Y+1
; 0000 0386  {
; 0000 0387  case 0: glcd_outtextxy(0,111,"---------------------++-----------------");
	SBIW R30,0
	BRNE _0x17B
	CALL SUBOPT_0x26
	__POINTW2MN _0x16C,418
	CALL SUBOPT_0x27
; 0000 0388           glcd_outtextxy(0,30," ");
	LDI  R30,LOW(30)
	ST   -Y,R30
	__POINTW2MN _0x16C,459
	RJMP _0x223
; 0000 0389           break;
; 0000 038A   case 1: glcd_outtextxy(0,111,"------------------++--------------------"); break;
_0x17B:
	CPI  R30,LOW(0x1)
	LDI  R26,HIGH(0x1)
	CPC  R31,R26
	BRNE _0x17C
	CALL SUBOPT_0x26
	__POINTW2MN _0x16C,461
	RJMP _0x223
; 0000 038B   case 2: glcd_outtextxy(0,111,"---------------++-----------------------"); break;
_0x17C:
	CPI  R30,LOW(0x2)
	LDI  R26,HIGH(0x2)
	CPC  R31,R26
	BRNE _0x17D
	CALL SUBOPT_0x26
	__POINTW2MN _0x16C,502
	RJMP _0x223
; 0000 038C   case 3: glcd_outtextxy(0,111,"------------------------++--------------"); break;
_0x17D:
	CPI  R30,LOW(0x3)
	LDI  R26,HIGH(0x3)
	CPC  R31,R26
	BRNE _0x17E
	CALL SUBOPT_0x26
	__POINTW2MN _0x16C,543
	RJMP _0x223
; 0000 038D   case 4: glcd_outtextxy(0,111,"--------------------------------------++"); break;
_0x17E:
	CPI  R30,LOW(0x4)
	LDI  R26,HIGH(0x4)
	CPC  R31,R26
	BRNE _0x17F
	CALL SUBOPT_0x26
	__POINTW2MN _0x16C,584
	RJMP _0x223
; 0000 038E   case 5: glcd_outtextxy(0,111,"-----------------------------------++---"); break;
_0x17F:
	CPI  R30,LOW(0x5)
	LDI  R26,HIGH(0x5)
	CPC  R31,R26
	BRNE _0x180
	CALL SUBOPT_0x26
	__POINTW2MN _0x16C,625
	RJMP _0x223
; 0000 038F   case 6: glcd_outtextxy(0,111,"------------------------------++++------"); break;
_0x180:
	CPI  R30,LOW(0x6)
	LDI  R26,HIGH(0x6)
	CPC  R31,R26
	BRNE _0x181
	CALL SUBOPT_0x26
	__POINTW2MN _0x16C,666
	RJMP _0x223
; 0000 0390   case 7: glcd_outtextxy(0,111,"--------++------------------------------"); break;
_0x181:
	CPI  R30,LOW(0x7)
	LDI  R26,HIGH(0x7)
	CPC  R31,R26
	BRNE _0x182
	CALL SUBOPT_0x26
	__POINTW2MN _0x16C,707
	RJMP _0x223
; 0000 0391   case 8: glcd_outtextxy(0,111,"-----++---------------------------------"); break;
_0x182:
	CPI  R30,LOW(0x8)
	LDI  R26,HIGH(0x8)
	CPC  R31,R26
	BRNE _0x183
	CALL SUBOPT_0x26
	__POINTW2MN _0x16C,748
	RJMP _0x223
; 0000 0392   case 9: glcd_outtextxy(0,111,"++++------------------------------------"); break;
_0x183:
	CPI  R30,LOW(0x9)
	LDI  R26,HIGH(0x9)
	CPC  R31,R26
	BRNE _0x184
	CALL SUBOPT_0x26
	__POINTW2MN _0x16C,789
	RJMP _0x223
; 0000 0393   case 10: glcd_outtextxy(0,111,"----------------------------------------");
_0x184:
	CPI  R30,LOW(0xA)
	LDI  R26,HIGH(0xA)
	CPC  R31,R26
	BRNE _0x185
	CALL SUBOPT_0x26
	__POINTW2MN _0x16C,830
	CALL SUBOPT_0x27
; 0000 0394           glcd_outtextxy(0,20,"+");
	LDI  R30,LOW(20)
	ST   -Y,R30
	__POINTW2MN _0x16C,871
	RJMP _0x223
; 0000 0395           break;
; 0000 0396   case 11: glcd_outtextxy(0,30,"+");
_0x185:
	CPI  R30,LOW(0xB)
	LDI  R26,HIGH(0xB)
	CPC  R31,R26
	BRNE _0x17A
	LDI  R30,LOW(0)
	ST   -Y,R30
	LDI  R30,LOW(30)
	ST   -Y,R30
	__POINTW2MN _0x16C,873
	CALL SUBOPT_0x27
; 0000 0397            glcd_outtextxy(0,20," ");
	LDI  R30,LOW(20)
	ST   -Y,R30
	__POINTW2MN _0x16C,875
_0x223:
	CALL _glcd_outtextxy
; 0000 0398            break;
; 0000 0399  }
_0x17A:
; 0000 039A }
_0x177:
; 0000 039B 
; 0000 039C }
_0x2120012:
	ADIW R28,2
	RET
; .FEND

	.DSEG
_0x16C:
	.BYTE 0x36D
;
;
;////////////////////
;
;
;/////////////////////
;
;void init_clock()
; 0000 03A5 {

	.CSEG
_init_clock:
; .FSTART _init_clock
; 0000 03A6  counter=0;
	CLR  R12
	CLR  R13
; 0000 03A7  hour=10;
	LDI  R30,LOW(10)
	LDI  R31,HIGH(10)
	MOVW R6,R30
; 0000 03A8  minute=59;
	LDI  R30,LOW(59)
	LDI  R31,HIGH(59)
	MOVW R8,R30
; 0000 03A9  second=50;
	LDI  R30,LOW(50)
	LDI  R31,HIGH(50)
	MOVW R4,R30
; 0000 03AA  am_pm='p';
	LDI  R30,LOW(112)
	STS  _am_pm,R30
; 0000 03AB  clock_mode=0;
	CLT
	BLD  R2,0
; 0000 03AC 
; 0000 03AD  ch_day=15;
	LDI  R30,LOW(15)
	LDI  R31,HIGH(15)
	CALL SUBOPT_0x28
; 0000 03AE  ch_month=5;
	LDI  R30,LOW(5)
	LDI  R31,HIGH(5)
	CALL SUBOPT_0x29
; 0000 03AF  ch_year=2016;
	LDI  R30,LOW(2016)
	LDI  R31,HIGH(2016)
	CALL SUBOPT_0x2A
; 0000 03B0 
; 0000 03B1  sh_day=26;
	LDI  R30,LOW(26)
	LDI  R31,HIGH(26)
	STS  _sh_day,R30
	STS  _sh_day+1,R31
; 0000 03B2  sh_month=2;
	LDI  R30,LOW(2)
	LDI  R31,HIGH(2)
	STS  _sh_month,R30
	STS  _sh_month+1,R31
; 0000 03B3  sh_year=1395;
	LDI  R30,LOW(1395)
	LDI  R31,HIGH(1395)
	STS  _sh_year,R30
	STS  _sh_year+1,R31
; 0000 03B4 
; 0000 03B5  m=ShamsiToMiladi(sh_month,sh_day,sh_year);
	CALL SUBOPT_0x2B
	CALL SUBOPT_0x2C
; 0000 03B6  sh=MiladiToShamsi(m.iMonth,m.iDay,m.iYear);
	CALL SUBOPT_0x2D
	ST   -Y,R31
	ST   -Y,R30
	CALL SUBOPT_0x2E
	ST   -Y,R31
	ST   -Y,R30
	LDS  R26,_m
	LDS  R27,_m+1
	RCALL _MiladiToShamsi
	LDI  R26,LOW(_sh)
	LDI  R27,HIGH(_sh)
	CALL __COPYMML
; 0000 03B7 }
	RET
; .FEND
;
;void show_clock()
; 0000 03BA {
_show_clock:
; .FSTART _show_clock
; 0000 03BB  if(show_cl==0)
	SBRS R2,1
; 0000 03BC    return;
	RET
; 0000 03BD  if(clock_mode==0)
	SBRC R2,0
	RJMP _0x188
; 0000 03BE  {
; 0000 03BF   H=hour;
	MOVW R10,R6
; 0000 03C0   if(am_pm=='a')
	LDS  R26,_am_pm
	CPI  R26,LOW(0x61)
	BRNE _0x189
; 0000 03C1   {
; 0000 03C2    sprintf(temp_s,"* %02i:%02i:%02i AM *",hour,minute,second);
	CALL SUBOPT_0x2F
	__POINTW1FN _0x0,641
	RJMP _0x224
; 0000 03C3   }
; 0000 03C4   else
_0x189:
; 0000 03C5   {
; 0000 03C6    sprintf(temp_s,"* %02i:%02i:%02i PM *",hour,minute,second);
	CALL SUBOPT_0x2F
	__POINTW1FN _0x0,663
_0x224:
	ST   -Y,R31
	ST   -Y,R30
	CALL SUBOPT_0x30
; 0000 03C7   }
; 0000 03C8  }
; 0000 03C9  else
	RJMP _0x18B
_0x188:
; 0000 03CA  {
; 0000 03CB   if(hour>12)
	CALL SUBOPT_0x31
	BRGE _0x18C
; 0000 03CC    H=hour-12;
	MOVW R30,R6
	SBIW R30,12
	MOVW R10,R30
; 0000 03CD   else
	RJMP _0x18D
_0x18C:
; 0000 03CE    H=hour;
	MOVW R10,R6
; 0000 03CF   sprintf(temp_s,"* %02i:%02i:%02i    *",hour,minute,second);
_0x18D:
	CALL SUBOPT_0x2F
	__POINTW1FN _0x0,685
	ST   -Y,R31
	ST   -Y,R30
	CALL SUBOPT_0x30
; 0000 03D0  }
_0x18B:
; 0000 03D1 
; 0000 03D2 
; 0000 03D3  glcd_outtextxy(80,120,temp_s);
	LDI  R30,LOW(80)
	CALL SUBOPT_0x32
; 0000 03D4  //sprintf(temp_s,"* %02i : %02i : %02i*",but0_counter,but2_counter,pointer);
; 0000 03D5  //glcd_outtextxy(40,110,temp_s);
; 0000 03D6 
; 0000 03D7 
; 0000 03D8 
; 0000 03D9  m.iDay=ch_day;
	LDS  R30,_ch_day
	LDS  R31,_ch_day+1
	__PUTW1MN _m,4
; 0000 03DA  m.iMonth=ch_month;
	CALL SUBOPT_0x1E
	__PUTW1MN _m,2
; 0000 03DB  m.iYear=ch_year;
	LDS  R30,_ch_year
	LDS  R31,_ch_year+1
	STS  _m,R30
	STS  _m+1,R31
; 0000 03DC 
; 0000 03DD  /*sh.iDay=sh_day;
; 0000 03DE  sh.iMonth=sh_month;
; 0000 03DF  sh.iYear=sh_year; */
; 0000 03E0  //m=ShamsiToMiladi(sh.iMonth,sh.iDay,sh.iYear);
; 0000 03E1  //sh=MiladiToShamsi(m.iMonth,m.iDay,m.iYear);
; 0000 03E2  ch_day=m.iDay;
	CALL SUBOPT_0x2E
	CALL SUBOPT_0x33
; 0000 03E3  ch_month=m.iMonth;
	CALL SUBOPT_0x34
; 0000 03E4  ch_year=m.iYear;
; 0000 03E5 
; 0000 03E6  /*sh_day=sh.iDay;
; 0000 03E7  sh_month=sh.iMonth;
; 0000 03E8  sh_year=sh.iYear; */
; 0000 03E9  sprintf(temp_s,"%04i/%02i/%02i",ch_year,ch_month,ch_day);
	CALL SUBOPT_0x2F
	__POINTW1FN _0x0,707
	ST   -Y,R31
	ST   -Y,R30
	LDS  R30,_ch_year
	LDS  R31,_ch_year+1
	CALL SUBOPT_0x35
	CALL SUBOPT_0x1E
	CALL SUBOPT_0x35
	LDS  R30,_ch_day
	LDS  R31,_ch_day+1
	CALL SUBOPT_0x35
	LDI  R24,12
	CALL _sprintf
	ADIW R28,16
; 0000 03EA  glcd_outtextxy(0,120,temp_s);
	LDI  R30,LOW(0)
	CALL SUBOPT_0x32
; 0000 03EB  sprintf(temp_s,"%04i/%02i/%02i",sh_year,sh_month,sh_day);
	CALL SUBOPT_0x2F
	__POINTW1FN _0x0,707
	ST   -Y,R31
	ST   -Y,R30
	LDS  R30,_sh_year
	LDS  R31,_sh_year+1
	CALL SUBOPT_0x35
	CALL SUBOPT_0x2B
	CALL SUBOPT_0x35
	LDS  R30,_sh_day
	LDS  R31,_sh_day+1
	CALL SUBOPT_0x35
	LDI  R24,12
	CALL _sprintf
	ADIW R28,16
; 0000 03EC  glcd_outtextxy(180,120,temp_s);
	LDI  R30,LOW(180)
	CALL SUBOPT_0x32
; 0000 03ED 
; 0000 03EE  glcd_outtextxy(10,20,miladi_month[ch_month-1]);
	CALL SUBOPT_0x25
	MOVW R26,R30
	CALL _glcd_outtextxy
; 0000 03EF  glcd_outtextxy(10,30,miladi_day[day_pointer]);
	CALL SUBOPT_0x24
	MOVW R26,R30
	CALL _glcd_outtextxy
; 0000 03F0  if(mode==1)
	SBRS R2,2
	RJMP _0x18E
; 0000 03F1   selection_s(pointer);
	CALL SUBOPT_0x36
	RCALL _selection_s
; 0000 03F2  else
	RJMP _0x18F
_0x18E:
; 0000 03F3   glcd_outtextxy(0,111,"----------------------------------------");
	CALL SUBOPT_0x26
	__POINTW2MN _0x190,0
	CALL _glcd_outtextxy
; 0000 03F4   ////////
; 0000 03F5 
; 0000 03F6   xs=Rs*cos((75-second)*2*3.1415/60.0);
_0x18F:
	CALL SUBOPT_0x37
	CALL _cos
	LDS  R26,_Rs
	LDS  R27,_Rs+1
	CALL SUBOPT_0x38
	STS  _xs,R30
	STS  _xs+1,R31
	STS  _xs+2,R22
	STS  _xs+3,R23
; 0000 03F7   ys=-Rs*sin((75-second)*2*3.1415/60.0);
	LDS  R30,_Rs
	LDS  R31,_Rs+1
	CALL __ANEGW1
	PUSH R31
	PUSH R30
	CALL SUBOPT_0x37
	CALL _sin
	POP  R26
	POP  R27
	CALL SUBOPT_0x38
	STS  _ys,R30
	STS  _ys+1,R31
	STS  _ys+2,R22
	STS  _ys+3,R23
; 0000 03F8   glcd_setcolor(0);
	LDI  R30,LOW(0)
	STS  _glcd_state,R30
; 0000 03F9   if(xs0!=xs || ys0!=ys)
	CALL SUBOPT_0x39
	CALL SUBOPT_0x3A
	CALL __CPD12
	BRNE _0x192
	CALL SUBOPT_0x3B
	CALL SUBOPT_0x3C
	CALL __CPD12
	BREQ _0x191
_0x192:
; 0000 03FA   {
; 0000 03FB    glcd_setlinestyle(1,GLCD_LINE_SOLID);
	CALL SUBOPT_0x3D
; 0000 03FC    glcd_line(x,y,xs0+x,ys0+y);
	CALL SUBOPT_0x3A
	CALL SUBOPT_0x3E
	CALL SUBOPT_0x3F
	CALL SUBOPT_0x3C
	CALL SUBOPT_0x3E
	MOV  R26,R30
	CALL _glcd_line
; 0000 03FD   }
; 0000 03FE   glcd_setcolor(1);
_0x191:
	LDI  R30,LOW(1)
	STS  _glcd_state,R30
; 0000 03FF   glcd_setlinestyle(1,GLCD_LINE_SOLID);
	CALL SUBOPT_0x3D
; 0000 0400   glcd_line(x,y,xs+x,ys+y);
	LDS  R26,_xs
	LDS  R27,_xs+1
	LDS  R24,_xs+2
	LDS  R25,_xs+3
	CALL SUBOPT_0x3E
	CALL SUBOPT_0x3F
	LDS  R26,_ys
	LDS  R27,_ys+1
	LDS  R24,_ys+2
	LDS  R25,_ys+3
	CALL SUBOPT_0x3E
	MOV  R26,R30
	CALL _glcd_line
; 0000 0401   ys0=ys;
	CALL SUBOPT_0x3B
	STS  _ys0,R30
	STS  _ys0+1,R31
	STS  _ys0+2,R22
	STS  _ys0+3,R23
; 0000 0402   xs0=xs;
	CALL SUBOPT_0x39
	STS  _xs0,R30
	STS  _xs0+1,R31
	STS  _xs0+2,R22
	STS  _xs0+3,R23
; 0000 0403 
; 0000 0404 
; 0000 0405   Xm=Rm*cos((75-(minute+(second/60.0)))*2*3.1415/60.0);
	CALL SUBOPT_0x40
	CALL _cos
	LDS  R26,_Rm
	LDS  R27,_Rm+1
	CALL SUBOPT_0x38
	STS  _Xm,R30
	STS  _Xm+1,R31
	STS  _Xm+2,R22
	STS  _Xm+3,R23
; 0000 0406   Ym=-Rm*sin((75-(minute+(second/60.0)))*2*3.1415/60.0);
	LDS  R30,_Rm
	LDS  R31,_Rm+1
	CALL __ANEGW1
	PUSH R31
	PUSH R30
	CALL SUBOPT_0x40
	CALL _sin
	POP  R26
	POP  R27
	CALL SUBOPT_0x38
	STS  _Ym,R30
	STS  _Ym+1,R31
	STS  _Ym+2,R22
	STS  _Ym+3,R23
; 0000 0407   glcd_setcolor(0);
	LDI  R30,LOW(0)
	STS  _glcd_state,R30
; 0000 0408   if(xm0!=Xm || ym0!=Ym)
	CALL SUBOPT_0x41
	CALL SUBOPT_0x42
	CALL __CPD12
	BRNE _0x195
	CALL SUBOPT_0x43
	CALL SUBOPT_0x44
	CALL __CPD12
	BREQ _0x194
_0x195:
; 0000 0409   {
; 0000 040A    glcd_setlinestyle(2,GLCD_LINE_SOLID);
	CALL SUBOPT_0x45
; 0000 040B    glcd_line(x,y,xm0+x,ym0+y);
	CALL SUBOPT_0x42
	CALL SUBOPT_0x3E
	CALL SUBOPT_0x3F
	CALL SUBOPT_0x44
	CALL SUBOPT_0x3E
	MOV  R26,R30
	CALL _glcd_line
; 0000 040C   }
; 0000 040D   glcd_setcolor(1);
_0x194:
	LDI  R30,LOW(1)
	STS  _glcd_state,R30
; 0000 040E   glcd_setlinestyle(2,GLCD_LINE_SOLID);
	CALL SUBOPT_0x45
; 0000 040F   glcd_line(x,y,Xm+x,Ym+y);
	LDS  R26,_Xm
	LDS  R27,_Xm+1
	LDS  R24,_Xm+2
	LDS  R25,_Xm+3
	CALL SUBOPT_0x3E
	CALL SUBOPT_0x3F
	LDS  R26,_Ym
	LDS  R27,_Ym+1
	LDS  R24,_Ym+2
	LDS  R25,_Ym+3
	CALL SUBOPT_0x3E
	MOV  R26,R30
	CALL _glcd_line
; 0000 0410   ym0=Ym;
	CALL SUBOPT_0x43
	STS  _ym0,R30
	STS  _ym0+1,R31
	STS  _ym0+2,R22
	STS  _ym0+3,R23
; 0000 0411   xm0=Xm;
	CALL SUBOPT_0x41
	STS  _xm0,R30
	STS  _xm0+1,R31
	STS  _xm0+2,R22
	STS  _xm0+3,R23
; 0000 0412 
; 0000 0413   Xh=(Rh*cos((3-(H+(minute/60.0)))*2*3.1415/12));
	CALL SUBOPT_0x46
	CALL _cos
	LDS  R26,_Rh
	LDS  R27,_Rh+1
	CALL SUBOPT_0x38
	STS  _Xh,R30
	STS  _Xh+1,R31
	STS  _Xh+2,R22
	STS  _Xh+3,R23
; 0000 0414   Yh=-Rh*sin((3-(H+(minute/60.0)))*2*3.1415/12);
	LDS  R30,_Rh
	LDS  R31,_Rh+1
	CALL __ANEGW1
	PUSH R31
	PUSH R30
	CALL SUBOPT_0x46
	CALL _sin
	POP  R26
	POP  R27
	CALL SUBOPT_0x38
	STS  _Yh,R30
	STS  _Yh+1,R31
	STS  _Yh+2,R22
	STS  _Yh+3,R23
; 0000 0415   glcd_setcolor(0);
	LDI  R30,LOW(0)
	STS  _glcd_state,R30
; 0000 0416   if(xh0!=Xh || yh0!=Yh)
	CALL SUBOPT_0x47
	CALL SUBOPT_0x48
	CALL __CPD12
	BRNE _0x198
	CALL SUBOPT_0x49
	CALL SUBOPT_0x4A
	CALL __CPD12
	BREQ _0x197
_0x198:
; 0000 0417   {
; 0000 0418    glcd_setlinestyle(3,GLCD_LINE_SOLID);
	CALL SUBOPT_0x4B
; 0000 0419    glcd_line(x,y,xh0+x,yh0+y);
	CALL SUBOPT_0x48
	CALL SUBOPT_0x3E
	CALL SUBOPT_0x3F
	CALL SUBOPT_0x4A
	CALL SUBOPT_0x3E
	MOV  R26,R30
	CALL _glcd_line
; 0000 041A   }
; 0000 041B   glcd_setcolor(1);
_0x197:
	LDI  R30,LOW(1)
	STS  _glcd_state,R30
; 0000 041C   glcd_setlinestyle(3,GLCD_LINE_SOLID);
	CALL SUBOPT_0x4B
; 0000 041D   glcd_line(x,y,Xh+x,Yh+y);
	LDS  R26,_Xh
	LDS  R27,_Xh+1
	LDS  R24,_Xh+2
	LDS  R25,_Xh+3
	CALL SUBOPT_0x3E
	CALL SUBOPT_0x3F
	LDS  R26,_Yh
	LDS  R27,_Yh+1
	LDS  R24,_Yh+2
	LDS  R25,_Yh+3
	CALL SUBOPT_0x3E
	MOV  R26,R30
	CALL _glcd_line
; 0000 041E   xh0=Xh;
	CALL SUBOPT_0x47
	STS  _xh0,R30
	STS  _xh0+1,R31
	STS  _xh0+2,R22
	STS  _xh0+3,R23
; 0000 041F   yh0=Yh;
	CALL SUBOPT_0x49
	STS  _yh0,R30
	STS  _yh0+1,R31
	STS  _yh0+2,R22
	STS  _yh0+3,R23
; 0000 0420  }
	RET
; .FEND

	.DSEG
_0x190:
	.BYTE 0x29
;
;
;void about()
; 0000 0424 {

	.CSEG
_about:
; .FSTART _about
; 0000 0425  mode_about=1;
	SET
	BLD  R2,3
; 0000 0426  glcd_clear();
	CALL _glcd_clear
; 0000 0427  show_cl=0;
	CLT
	BLD  R2,1
; 0000 0428  glcd_putimagef(0,0,eagle,GLCD_PUTCOPY);
	CALL SUBOPT_0x4C
	LDI  R30,LOW(_eagle*2)
	LDI  R31,HIGH(_eagle*2)
	CALL SUBOPT_0x4D
; 0000 0429  glcd_putimagef(120,0,taleb,GLCD_PUTCOPY);
	LDI  R30,LOW(120)
	ST   -Y,R30
	LDI  R30,LOW(0)
	ST   -Y,R30
	LDI  R30,LOW(_taleb*2)
	LDI  R31,HIGH(_taleb*2)
	CALL SUBOPT_0x4D
; 0000 042A }
	RET
; .FEND
;
;
;// Timer1 output compare A interrupt service routine
;interrupt [TIM1_COMPA] void timer1_compa_isr(void)
; 0000 042F {
_timer1_compa_isr:
; .FSTART _timer1_compa_isr
	ST   -Y,R0
	ST   -Y,R1
	ST   -Y,R15
	ST   -Y,R22
	ST   -Y,R23
	ST   -Y,R24
	ST   -Y,R25
	ST   -Y,R26
	ST   -Y,R27
	ST   -Y,R30
	ST   -Y,R31
	IN   R30,SREG
	ST   -Y,R30
; 0000 0430 
; 0000 0431  second++;
	MOVW R30,R4
	ADIW R30,1
	MOVW R4,R30
; 0000 0432  if(second>=60)
	LDI  R30,LOW(60)
	LDI  R31,HIGH(60)
	CP   R4,R30
	CPC  R5,R31
	BRGE PC+2
	RJMP _0x19A
; 0000 0433  {
; 0000 0434   second=0;
	CALL SUBOPT_0xD
; 0000 0435   minute++;
; 0000 0436   if(minute>=60)
	BRGE PC+2
	RJMP _0x19B
; 0000 0437   {
; 0000 0438    minute=0;
	CLR  R8
	CLR  R9
; 0000 0439    hour++;
	MOVW R30,R6
	ADIW R30,1
	MOVW R6,R30
; 0000 043A    if(clock_mode==0)
	SBRC R2,0
	RJMP _0x19C
; 0000 043B    {
; 0000 043C     if(am_pm=='a' && hour==12)
	LDS  R26,_am_pm
	CPI  R26,LOW(0x61)
	BRNE _0x19E
	CALL SUBOPT_0x31
	BREQ _0x19F
_0x19E:
	RJMP _0x19D
_0x19F:
; 0000 043D     {
; 0000 043E      am_pm='p';
	LDI  R30,LOW(112)
	STS  _am_pm,R30
; 0000 043F     }
; 0000 0440     else if(am_pm=='p' && hour==13)
	RJMP _0x1A0
_0x19D:
	LDS  R26,_am_pm
	CPI  R26,LOW(0x70)
	BRNE _0x1A2
	LDI  R30,LOW(13)
	LDI  R31,HIGH(13)
	CP   R30,R6
	CPC  R31,R7
	BREQ _0x1A3
_0x1A2:
	RJMP _0x1A1
_0x1A3:
; 0000 0441     {
; 0000 0442      hour=1;
	RJMP _0x225
; 0000 0443     }
; 0000 0444     else if(am_pm=='p' && hour==12)
_0x1A1:
	LDS  R26,_am_pm
	CPI  R26,LOW(0x70)
	BRNE _0x1A6
	CALL SUBOPT_0x31
	BREQ _0x1A7
_0x1A6:
	RJMP _0x1A5
_0x1A7:
; 0000 0445     {
; 0000 0446      //hour=0;
; 0000 0447      am_pm='a';
	LDI  R30,LOW(97)
	STS  _am_pm,R30
; 0000 0448      ch_day++;
	CALL SUBOPT_0x1D
; 0000 0449      sh_day++;
	CALL SUBOPT_0x1A
; 0000 044A      day_pointer++;
; 0000 044B      if(day_pointer==7)
	BRNE _0x1A8
; 0000 044C       day_pointer=0;
	CALL SUBOPT_0x11
; 0000 044D      switch(sh_month)
_0x1A8:
	CALL SUBOPT_0x12
; 0000 044E      {
; 0000 044F       case 1:
	BREQ _0x1AD
; 0000 0450       case 2:
	CPI  R30,LOW(0x2)
	LDI  R26,HIGH(0x2)
	CPC  R31,R26
	BRNE _0x1AE
_0x1AD:
; 0000 0451       case 3:
	RJMP _0x1AF
_0x1AE:
	CPI  R30,LOW(0x3)
	LDI  R26,HIGH(0x3)
	CPC  R31,R26
	BRNE _0x1B0
_0x1AF:
; 0000 0452       case 4:
	RJMP _0x1B1
_0x1B0:
	CPI  R30,LOW(0x4)
	LDI  R26,HIGH(0x4)
	CPC  R31,R26
	BRNE _0x1B2
_0x1B1:
; 0000 0453       case 5:
	RJMP _0x1B3
_0x1B2:
	CPI  R30,LOW(0x5)
	LDI  R26,HIGH(0x5)
	CPC  R31,R26
	BRNE _0x1B4
_0x1B3:
; 0000 0454       case 6:
	RJMP _0x1B5
_0x1B4:
	CPI  R30,LOW(0x6)
	LDI  R26,HIGH(0x6)
	CPC  R31,R26
	BRNE _0x1B6
_0x1B5:
; 0000 0455        if(sh_day==32)
	CALL SUBOPT_0x13
	SBIW R26,32
	BRNE _0x1B7
; 0000 0456         {
; 0000 0457          sh_day=1;
	CALL SUBOPT_0x1B
; 0000 0458          sh_month++;
; 0000 0459         }
; 0000 045A        break;
_0x1B7:
	RJMP _0x1AB
; 0000 045B      case 7:
_0x1B6:
	CPI  R30,LOW(0x7)
	LDI  R26,HIGH(0x7)
	CPC  R31,R26
	BREQ _0x1B9
; 0000 045C      case 8:
	CPI  R30,LOW(0x8)
	LDI  R26,HIGH(0x8)
	CPC  R31,R26
	BRNE _0x1BA
_0x1B9:
; 0000 045D      case 9:
	RJMP _0x1BB
_0x1BA:
	CPI  R30,LOW(0x9)
	LDI  R26,HIGH(0x9)
	CPC  R31,R26
	BRNE _0x1BC
_0x1BB:
; 0000 045E      case 10:
	RJMP _0x1BD
_0x1BC:
	CPI  R30,LOW(0xA)
	LDI  R26,HIGH(0xA)
	CPC  R31,R26
	BRNE _0x1BE
_0x1BD:
; 0000 045F      case 11:
	RJMP _0x1BF
_0x1BE:
	CPI  R30,LOW(0xB)
	LDI  R26,HIGH(0xB)
	CPC  R31,R26
	BRNE _0x1C0
_0x1BF:
; 0000 0460       if(sh_day==31)
	CALL SUBOPT_0x13
	SBIW R26,31
	BRNE _0x1C1
; 0000 0461       {
; 0000 0462        sh_day=1;
	CALL SUBOPT_0x1B
; 0000 0463        sh_month++;
; 0000 0464       }
; 0000 0465       break;
_0x1C1:
	RJMP _0x1AB
; 0000 0466      case 12:
_0x1C0:
	CPI  R30,LOW(0xC)
	LDI  R26,HIGH(0xC)
	CPC  R31,R26
	BRNE _0x1AB
; 0000 0467       if(sh_day==30)
	CALL SUBOPT_0x13
	SBIW R26,30
	BRNE _0x1C3
; 0000 0468       {
; 0000 0469        sh_day=1;
	CALL SUBOPT_0x16
; 0000 046A        sh_month=1;
; 0000 046B        sh_year++;
; 0000 046C       }
; 0000 046D      }
_0x1C3:
_0x1AB:
; 0000 046E 
; 0000 046F 
; 0000 0470      //
; 0000 0471      m=ShamsiToMiladi(sh_month,sh_day,sh_year);
	CALL SUBOPT_0x2B
	CALL SUBOPT_0x2C
; 0000 0472      ch_day=m.iDay;
	CALL SUBOPT_0x2E
	CALL SUBOPT_0x33
; 0000 0473      ch_month=m.iMonth;
	CALL SUBOPT_0x34
; 0000 0474      ch_year=m.iYear;
; 0000 0475      //
; 0000 0476     }
; 0000 0477     else if(am_pm=='a' && hour==13)
	RJMP _0x1C4
_0x1A5:
	LDS  R26,_am_pm
	CPI  R26,LOW(0x61)
	BRNE _0x1C6
	LDI  R30,LOW(13)
	LDI  R31,HIGH(13)
	CP   R30,R6
	CPC  R31,R7
	BREQ _0x1C7
_0x1C6:
	RJMP _0x1C5
_0x1C7:
; 0000 0478     {
; 0000 0479      hour=1;
_0x225:
	LDI  R30,LOW(1)
	LDI  R31,HIGH(1)
	MOVW R6,R30
; 0000 047A     }
; 0000 047B    }
_0x1C5:
_0x1C4:
_0x1A0:
; 0000 047C    else
	RJMP _0x1C8
_0x19C:
; 0000 047D    {
; 0000 047E     if(hour==24)
	LDI  R30,LOW(24)
	LDI  R31,HIGH(24)
	CP   R30,R6
	CPC  R31,R7
	BREQ PC+2
	RJMP _0x1C9
; 0000 047F     {
; 0000 0480      hour=0;
	CLR  R6
	CLR  R7
; 0000 0481      ch_day++;
	CALL SUBOPT_0x1D
; 0000 0482      sh_day++;
	CALL SUBOPT_0x1A
; 0000 0483      day_pointer++;
; 0000 0484      if(day_pointer==7)
	BRNE _0x1CA
; 0000 0485       day_pointer=0;
	CALL SUBOPT_0x11
; 0000 0486      switch(sh_month)
_0x1CA:
	CALL SUBOPT_0x12
; 0000 0487      {
; 0000 0488       case 1:
	BREQ _0x1CF
; 0000 0489       case 2:
	CPI  R30,LOW(0x2)
	LDI  R26,HIGH(0x2)
	CPC  R31,R26
	BRNE _0x1D0
_0x1CF:
; 0000 048A       case 3:
	RJMP _0x1D1
_0x1D0:
	CPI  R30,LOW(0x3)
	LDI  R26,HIGH(0x3)
	CPC  R31,R26
	BRNE _0x1D2
_0x1D1:
; 0000 048B       case 4:
	RJMP _0x1D3
_0x1D2:
	CPI  R30,LOW(0x4)
	LDI  R26,HIGH(0x4)
	CPC  R31,R26
	BRNE _0x1D4
_0x1D3:
; 0000 048C       case 5:
	RJMP _0x1D5
_0x1D4:
	CPI  R30,LOW(0x5)
	LDI  R26,HIGH(0x5)
	CPC  R31,R26
	BRNE _0x1D6
_0x1D5:
; 0000 048D       case 6:
	RJMP _0x1D7
_0x1D6:
	CPI  R30,LOW(0x6)
	LDI  R26,HIGH(0x6)
	CPC  R31,R26
	BRNE _0x1D8
_0x1D7:
; 0000 048E        if(sh_day==32)
	CALL SUBOPT_0x13
	SBIW R26,32
	BRNE _0x1D9
; 0000 048F         {
; 0000 0490          sh_day=1;
	CALL SUBOPT_0x1B
; 0000 0491          sh_month++;
; 0000 0492         }
; 0000 0493        break;
_0x1D9:
	RJMP _0x1CD
; 0000 0494      case 7:
_0x1D8:
	CPI  R30,LOW(0x7)
	LDI  R26,HIGH(0x7)
	CPC  R31,R26
	BREQ _0x1DB
; 0000 0495      case 8:
	CPI  R30,LOW(0x8)
	LDI  R26,HIGH(0x8)
	CPC  R31,R26
	BRNE _0x1DC
_0x1DB:
; 0000 0496      case 9:
	RJMP _0x1DD
_0x1DC:
	CPI  R30,LOW(0x9)
	LDI  R26,HIGH(0x9)
	CPC  R31,R26
	BRNE _0x1DE
_0x1DD:
; 0000 0497      case 10:
	RJMP _0x1DF
_0x1DE:
	CPI  R30,LOW(0xA)
	LDI  R26,HIGH(0xA)
	CPC  R31,R26
	BRNE _0x1E0
_0x1DF:
; 0000 0498      case 11:
	RJMP _0x1E1
_0x1E0:
	CPI  R30,LOW(0xB)
	LDI  R26,HIGH(0xB)
	CPC  R31,R26
	BRNE _0x1E2
_0x1E1:
; 0000 0499       if(sh_day==31)
	CALL SUBOPT_0x13
	SBIW R26,31
	BRNE _0x1E3
; 0000 049A       {
; 0000 049B        sh_day=1;
	CALL SUBOPT_0x1B
; 0000 049C        sh_month++;
; 0000 049D       }
; 0000 049E       break;
_0x1E3:
	RJMP _0x1CD
; 0000 049F      case 12:
_0x1E2:
	CPI  R30,LOW(0xC)
	LDI  R26,HIGH(0xC)
	CPC  R31,R26
	BRNE _0x1CD
; 0000 04A0       if(sh_day==30)
	CALL SUBOPT_0x13
	SBIW R26,30
	BRNE _0x1E5
; 0000 04A1       {
; 0000 04A2        sh_day=1;
	CALL SUBOPT_0x16
; 0000 04A3        sh_month=1;
; 0000 04A4        sh_year++;
; 0000 04A5       }
; 0000 04A6      }
_0x1E5:
_0x1CD:
; 0000 04A7 
; 0000 04A8 
; 0000 04A9      //
; 0000 04AA      m=ShamsiToMiladi(sh_month,sh_day,sh_year);
	CALL SUBOPT_0x2B
	CALL SUBOPT_0x2C
; 0000 04AB      ch_day=m.iDay;
	CALL SUBOPT_0x2E
	CALL SUBOPT_0x33
; 0000 04AC      ch_month=m.iMonth;
	CALL SUBOPT_0x34
; 0000 04AD      ch_year=m.iYear;
; 0000 04AE      //
; 0000 04AF     }
; 0000 04B0    }
_0x1C9:
_0x1C8:
; 0000 04B1   }
; 0000 04B2  }
_0x19B:
; 0000 04B3   if(on_while==1)
_0x19A:
	SBRC R2,4
; 0000 04B4    show_clock();
	RCALL _show_clock
; 0000 04B5 
; 0000 04B6 
; 0000 04B7 
; 0000 04B8 }
	LD   R30,Y+
	OUT  SREG,R30
	LD   R31,Y+
	LD   R30,Y+
	LD   R27,Y+
	LD   R26,Y+
	LD   R25,Y+
	LD   R24,Y+
	LD   R23,Y+
	LD   R22,Y+
	LD   R15,Y+
	LD   R1,Y+
	LD   R0,Y+
	RETI
; .FEND
;
;
;interrupt [TIM2_OVF] void timer2(void)
; 0000 04BC {
_timer2:
; .FSTART _timer2
	ST   -Y,R26
	ST   -Y,R27
	ST   -Y,R30
	ST   -Y,R31
	IN   R30,SREG
	ST   -Y,R30
; 0000 04BD  but0_counter++;
	LDI  R26,LOW(_but0_counter)
	LDI  R27,HIGH(_but0_counter)
	CALL SUBOPT_0x1C
; 0000 04BE  but2_counter++;
	LDI  R26,LOW(_but2_counter)
	LDI  R27,HIGH(_but2_counter)
	CALL SUBOPT_0x1C
; 0000 04BF }
	LD   R30,Y+
	OUT  SREG,R30
	LD   R31,Y+
	LD   R30,Y+
	LD   R27,Y+
	LD   R26,Y+
	RETI
; .FEND
;
;
;////////////////////////////////////
;
;void reset_counters()
; 0000 04C5 {
_reset_counters:
; .FSTART _reset_counters
; 0000 04C6  but2_counter=0;
	LDI  R30,LOW(0)
	STS  _but2_counter,R30
	STS  _but2_counter+1,R30
; 0000 04C7  but0_counter=0;
	STS  _but0_counter,R30
	STS  _but0_counter+1,R30
; 0000 04C8 }
	RET
; .FEND
;
;
;void button0()
; 0000 04CC {
_button0:
; .FSTART _button0
; 0000 04CD /////////////////
; 0000 04CE reset_counters();
	RCALL _reset_counters
; 0000 04CF   if(mode==0)
	SBRC R2,2
	RJMP _0x1E7
; 0000 04D0   {
; 0000 04D1    if(clock_mode==0)
	SBRC R2,0
	RJMP _0x1E8
; 0000 04D2    {
; 0000 04D3     clock_mode=1;
	SET
	BLD  R2,0
; 0000 04D4     if(am_pm=='a' && hour==12)
	LDS  R26,_am_pm
	CPI  R26,LOW(0x61)
	BRNE _0x1EA
	CALL SUBOPT_0x31
	BREQ _0x1EB
_0x1EA:
	RJMP _0x1E9
_0x1EB:
; 0000 04D5     {
; 0000 04D6      hour=0;
	CLR  R6
	CLR  R7
; 0000 04D7     }
; 0000 04D8     else if(am_pm=='p' && hour<12)
	RJMP _0x1EC
_0x1E9:
	LDS  R26,_am_pm
	CPI  R26,LOW(0x70)
	BRNE _0x1EE
	CALL SUBOPT_0xE
	BRLT _0x1EF
_0x1EE:
	RJMP _0x1ED
_0x1EF:
; 0000 04D9     {
; 0000 04DA      hour+=12;
	MOVW R30,R6
	ADIW R30,12
	MOVW R6,R30
; 0000 04DB     }
; 0000 04DC    }
_0x1ED:
_0x1EC:
; 0000 04DD    else
	RJMP _0x1F0
_0x1E8:
; 0000 04DE    {
; 0000 04DF     clock_mode=0;
	CLT
	BLD  R2,0
; 0000 04E0     if(hour>12)
	CALL SUBOPT_0x31
	BRGE _0x1F1
; 0000 04E1     {
; 0000 04E2      am_pm='p';
	LDI  R30,LOW(112)
	STS  _am_pm,R30
; 0000 04E3      hour-=12;
	MOVW R30,R6
	SBIW R30,12
	MOVW R6,R30
; 0000 04E4     }
; 0000 04E5     else if(hour<12)
	RJMP _0x1F2
_0x1F1:
	CALL SUBOPT_0xE
	BRGE _0x1F3
; 0000 04E6     {
; 0000 04E7      if(hour==0)
	MOV  R0,R6
	OR   R0,R7
	BRNE _0x1F4
; 0000 04E8       hour=12;
	LDI  R30,LOW(12)
	LDI  R31,HIGH(12)
	MOVW R6,R30
; 0000 04E9      am_pm='a';
_0x1F4:
	LDI  R30,LOW(97)
	STS  _am_pm,R30
; 0000 04EA     }
; 0000 04EB    }
_0x1F3:
_0x1F2:
_0x1F0:
; 0000 04EC   }
; 0000 04ED   else
	RJMP _0x1F5
_0x1E7:
; 0000 04EE   {
; 0000 04EF    pointer++;
	LDI  R26,LOW(_pointer)
	LDI  R27,HIGH(_pointer)
	CALL SUBOPT_0x1C
; 0000 04F0    if(clock_mode==0)
	SBRC R2,0
	RJMP _0x1F6
; 0000 04F1    {
; 0000 04F2     if(pointer>=12)
	CALL SUBOPT_0x36
	SBIW R26,12
	BRLT _0x1F7
; 0000 04F3     pointer=0;
	CALL SUBOPT_0x4E
; 0000 04F4    }
_0x1F7:
; 0000 04F5    else
	RJMP _0x1F8
_0x1F6:
; 0000 04F6    {
; 0000 04F7     if(pointer>=11)
	CALL SUBOPT_0x36
	SBIW R26,11
	BRLT _0x1F9
; 0000 04F8     pointer=0;
	CALL SUBOPT_0x4E
; 0000 04F9    }
_0x1F9:
_0x1F8:
; 0000 04FA    selection_s(pointer);
	CALL SUBOPT_0x36
	RCALL _selection_s
; 0000 04FB   }
_0x1F5:
; 0000 04FC   //
; 0000 04FD ////////////////
; 0000 04FE 
; 0000 04FF 
; 0000 0500 
; 0000 0501 
; 0000 0502  TCNT2=0;
	LDI  R30,LOW(0)
	OUT  0x24,R30
; 0000 0503  on_while=1;
	SET
	BLD  R2,4
; 0000 0504  while(PIND.1==1)
_0x1FA:
	SBIS 0x10,1
	RJMP _0x1FC
; 0000 0505  {
; 0000 0506   TIMSK=(0<<OCIE2) | (1<<TOIE2) | (0<<TICIE1) | (1<<OCIE1A) | (0<<OCIE1B) | (1<<TOIE1) | (0<<OCIE0) | (0<<TOIE0);
	LDI  R30,LOW(84)
	OUT  0x39,R30
; 0000 0507   if(but0_counter==2)
	LDS  R26,_but0_counter
	LDS  R27,_but0_counter+1
	SBIW R26,2
	BRNE _0x1FD
; 0000 0508   {
; 0000 0509    TIMSK=(0<<OCIE2) | (0<<TOIE2) | (0<<TICIE1) | (1<<OCIE1A) | (0<<OCIE1B) | (1<<TOIE1) | (0<<OCIE0) | (0<<TOIE0);
	CALL SUBOPT_0x4F
; 0000 050A    reset_counters();
; 0000 050B    TCNT2=0;
; 0000 050C    if(mode==0 && mode_about==0)
	SBRC R2,2
	RJMP _0x1FF
	SBRS R2,3
	RJMP _0x200
_0x1FF:
	RJMP _0x1FE
_0x200:
; 0000 050D    {
; 0000 050E     about();
	RCALL _about
; 0000 050F    }
; 0000 0510   }
_0x1FE:
; 0000 0511  }
_0x1FD:
	RJMP _0x1FA
_0x1FC:
; 0000 0512  on_while=0;
	CALL SUBOPT_0x50
; 0000 0513 
; 0000 0514  TIMSK=(0<<OCIE2) | (0<<TOIE2) | (0<<TICIE1) | (1<<OCIE1A) | (0<<OCIE1B) | (1<<TOIE1) | (0<<OCIE0) | (0<<TOIE0);
; 0000 0515  TCNT2=0;
; 0000 0516 
; 0000 0517 }
	RET
; .FEND
;
;
;void button1()
; 0000 051B {
_button1:
; .FSTART _button1
; 0000 051C  if(mode==0 && mode_about==1)
	SBRC R2,2
	RJMP _0x202
	SBRC R2,3
	RJMP _0x203
_0x202:
	RJMP _0x201
_0x203:
; 0000 051D  {
; 0000 051E   mode_about=0;
	CALL SUBOPT_0x51
; 0000 051F   show_cl=1;
; 0000 0520   glcd_clear();
; 0000 0521   glcd_putimagef(69,0,clock_0,GLCD_PUTCOPY);
; 0000 0522   glcd_setfillcolor(0);
	CALL SUBOPT_0x52
; 0000 0523   glcd_fillcircle(x,y,32);
; 0000 0524  }
; 0000 0525  if(mode==1)
_0x201:
	SBRS R2,2
	RJMP _0x204
; 0000 0526  {
; 0000 0527   //while(PIND.2==1);
; 0000 0528   inc_selection(pointer);
	CALL SUBOPT_0x36
	CALL _inc_selection
; 0000 0529  }
; 0000 052A }
_0x204:
	RET
; .FEND
;
;
;void button2()
; 0000 052E {
_button2:
; .FSTART _button2
; 0000 052F  reset_counters();
	RCALL _reset_counters
; 0000 0530  if(mode==0 && mode_about==1)
	SBRC R2,2
	RJMP _0x206
	SBRC R2,3
	RJMP _0x207
_0x206:
	RJMP _0x205
_0x207:
; 0000 0531  {
; 0000 0532   mode_about=0;
	CALL SUBOPT_0x51
; 0000 0533   show_cl=1;
; 0000 0534   glcd_clear();
; 0000 0535   glcd_putimagef(69,0,clock_0,GLCD_PUTCOPY);
; 0000 0536   glcd_setfillcolor(0);
	CALL SUBOPT_0x52
; 0000 0537   glcd_fillcircle(x,y,32);
; 0000 0538  }
; 0000 0539 
; 0000 053A  if(mode==1)
_0x205:
	SBRS R2,2
	RJMP _0x208
; 0000 053B  {
; 0000 053C   mode=0;
	CLT
	BLD  R2,2
; 0000 053D   glcd_outtextxy(0,0,"            ");
	CALL SUBOPT_0x4C
	__POINTW2MN _0x209,0
	CALL SUBOPT_0x27
; 0000 053E   glcd_outtextxy(0,20," ");
	LDI  R30,LOW(20)
	ST   -Y,R30
	__POINTW2MN _0x209,13
	CALL SUBOPT_0x27
; 0000 053F   glcd_outtextxy(0,30," ");
	LDI  R30,LOW(30)
	ST   -Y,R30
	__POINTW2MN _0x209,15
	CALL _glcd_outtextxy
; 0000 0540  }
; 0000 0541 
; 0000 0542  on_while=1;
_0x208:
	SET
	BLD  R2,4
; 0000 0543  TCNT2=0;
	LDI  R30,LOW(0)
	OUT  0x24,R30
; 0000 0544  while(PIND.3==1)
_0x20A:
	SBIS 0x10,3
	RJMP _0x20C
; 0000 0545  {
; 0000 0546   TIMSK=(0<<OCIE2) | (1<<TOIE2) | (0<<TICIE1) | (1<<OCIE1A) | (0<<OCIE1B) | (1<<TOIE1) | (0<<OCIE0) | (0<<TOIE0);
	LDI  R30,LOW(84)
	OUT  0x39,R30
; 0000 0547   if(but2_counter==2)
	LDS  R26,_but2_counter
	LDS  R27,_but2_counter+1
	SBIW R26,2
	BRNE _0x20D
; 0000 0548   {
; 0000 0549    TIMSK=(0<<OCIE2) | (0<<TOIE2) | (0<<TICIE1) | (1<<OCIE1A) | (0<<OCIE1B) | (1<<TOIE1) | (0<<OCIE0) | (0<<TOIE0);
	CALL SUBOPT_0x4F
; 0000 054A    reset_counters();
; 0000 054B    TCNT2=0;
; 0000 054C    if(mode==0 && mode_about==0)
	SBRC R2,2
	RJMP _0x20F
	SBRS R2,3
	RJMP _0x210
_0x20F:
	RJMP _0x20E
_0x210:
; 0000 054D    {
; 0000 054E     mode=1;
	SET
	BLD  R2,2
; 0000 054F     pointer=0;
	CALL SUBOPT_0x4E
; 0000 0550     //TIMSK=(0<<OCIE2) | (0<<TOIE2) | (0<<TICIE1) | (0<<OCIE1A) | (0<<OCIE1B) | (0<<TOIE1) | (0<<OCIE0) | (0<<TOIE0);
; 0000 0551     selection_s(pointer);
	CALL SUBOPT_0x36
	RCALL _selection_s
; 0000 0552     //TIMSK=(0<<OCIE2) | (0<<TOIE2) | (0<<TICIE1) | (1<<OCIE1A) | (0<<OCIE1B) | (1<<TOIE1) | (0<<OCIE0) | (0<<TOIE0);
; 0000 0553     glcd_outtextxy(0,0,"Setting Mode");
	CALL SUBOPT_0x4C
	__POINTW2MN _0x209,17
	CALL _glcd_outtextxy
; 0000 0554    }
; 0000 0555   }
_0x20E:
; 0000 0556  }
_0x20D:
	RJMP _0x20A
_0x20C:
; 0000 0557  on_while=0;
	CALL SUBOPT_0x50
; 0000 0558 
; 0000 0559  TIMSK=(0<<OCIE2) | (0<<TOIE2) | (0<<TICIE1) | (1<<OCIE1A) | (0<<OCIE1B) | (1<<TOIE1) | (0<<OCIE0) | (0<<TOIE0);
; 0000 055A  TCNT2=0;
; 0000 055B  reset_counters();
	RCALL _reset_counters
; 0000 055C 
; 0000 055D }
	RET
; .FEND

	.DSEG
_0x209:
	.BYTE 0x1E
;
;
;////////////////////////////////////
;
;void main(void)
; 0000 0563 {

	.CSEG
_main:
; .FSTART _main
; 0000 0564 GLCDINIT_t glcd_init_data;
; 0000 0565 
; 0000 0566 // Input/Output Ports initialization
; 0000 0567 // Port A initialization
; 0000 0568 // Function: Bit7=In Bit6=In Bit5=In Bit4=In Bit3=In Bit2=In Bit1=In Bit0=In
; 0000 0569 DDRA=(0<<DDA7) | (0<<DDA6) | (0<<DDA5) | (0<<DDA4) | (0<<DDA3) | (0<<DDA2) | (0<<DDA1) | (0<<DDA0);
	SBIW R28,6
;	glcd_init_data -> Y+0
	LDI  R30,LOW(0)
	OUT  0x1A,R30
; 0000 056A // State: Bit7=T Bit6=T Bit5=T Bit4=T Bit3=T Bit2=T Bit1=T Bit0=T
; 0000 056B PORTA=(0<<PORTA7) | (0<<PORTA6) | (0<<PORTA5) | (0<<PORTA4) | (0<<PORTA3) | (0<<PORTA2) | (0<<PORTA1) | (0<<PORTA0);
	OUT  0x1B,R30
; 0000 056C 
; 0000 056D 
; 0000 056E // Timer/Counter 0 initialization
; 0000 056F // Clock source: System Clock
; 0000 0570 // Clock value: Timer 0 Stopped
; 0000 0571 // Mode: Normal top=0xFF
; 0000 0572 // OC0 output: Disconnected
; 0000 0573 TCCR0=(0<<WGM00) | (0<<COM01) | (0<<COM00) | (0<<WGM01) | (0<<CS02) | (0<<CS01) | (0<<CS00);
	OUT  0x33,R30
; 0000 0574 TCNT0=0x00;
	OUT  0x32,R30
; 0000 0575 OCR0=0x00;
	OUT  0x3C,R30
; 0000 0576 
; 0000 0577 // Timer/Counter 1 initialization
; 0000 0578 // Clock source: System Clock
; 0000 0579 // Clock value: 31.250 kHz
; 0000 057A // Mode: CTC top=OCR1A
; 0000 057B // OC1A output: Disconnected
; 0000 057C // OC1B output: Disconnected
; 0000 057D // Noise Canceler: Off
; 0000 057E // Input Capture on Falling Edge
; 0000 057F // Timer Period: 1 s
; 0000 0580 // Timer1 Overflow Interrupt: On
; 0000 0581 // Input Capture Interrupt: Off
; 0000 0582 // Compare A Match Interrupt: On
; 0000 0583 // Compare B Match Interrupt: Off
; 0000 0584 TCCR1A=(0<<COM1A1) | (0<<COM1A0) | (0<<COM1B1) | (0<<COM1B0) | (0<<WGM11) | (0<<WGM10);
	OUT  0x2F,R30
; 0000 0585 TCCR1B=(0<<ICNC1) | (0<<ICES1) | (0<<WGM13) | (1<<WGM12) | (1<<CS12) | (0<<CS11) | (0<<CS10);
	LDI  R30,LOW(12)
	OUT  0x2E,R30
; 0000 0586 TCNT1H=0x00;
	LDI  R30,LOW(0)
	OUT  0x2D,R30
; 0000 0587 TCNT1L=0x00;
	OUT  0x2C,R30
; 0000 0588 ICR1H=0x00;
	OUT  0x27,R30
; 0000 0589 ICR1L=0x00;
	OUT  0x26,R30
; 0000 058A OCR1AH=0x7A;
	LDI  R30,LOW(122)
	OUT  0x2B,R30
; 0000 058B OCR1AL=0x11;
	LDI  R30,LOW(17)
	OUT  0x2A,R30
; 0000 058C OCR1BH=0x00;
	LDI  R30,LOW(0)
	OUT  0x29,R30
; 0000 058D OCR1BL=0x00;
	OUT  0x28,R30
; 0000 058E 
; 0000 058F // Timer/Counter 2 initialization
; 0000 0590 // Clock source: System Clock
; 0000 0591 // Clock value: Timer2 Stopped
; 0000 0592 // Mode: Normal top=0xFF
; 0000 0593 // OC2 output: Disconnected
; 0000 0594 //ASSR=0<<AS2;
; 0000 0595 ASSR=0x08;
	LDI  R30,LOW(8)
	OUT  0x22,R30
; 0000 0596 TCCR2=0x05;
	LDI  R30,LOW(5)
	OUT  0x25,R30
; 0000 0597 //TCCR2=(0<<PWM2) | (0<<COM21) | (0<<COM20) | (0<<CTC2) | (0<<CS22) | (0<<CS21) | (0<<CS20);
; 0000 0598 TCNT2=0x00;
	LDI  R30,LOW(0)
	OUT  0x24,R30
; 0000 0599 OCR2=0xC2;
	LDI  R30,LOW(194)
	OUT  0x23,R30
; 0000 059A // Timer(s)/Counter(s) Interrupt(s) initialization
; 0000 059B //TIMSK=0x40;
; 0000 059C 
; 0000 059D // Timer(s)/Counter(s) Interrupt(s) initialization
; 0000 059E TIMSK=(0<<OCIE2) | (0<<TOIE2) | (0<<TICIE1) | (1<<OCIE1A) | (0<<OCIE1B) | (1<<TOIE1) | (0<<OCIE0) | (0<<TOIE0);
	LDI  R30,LOW(20)
	OUT  0x39,R30
; 0000 059F 
; 0000 05A0 // External Interrupt(s) initialization
; 0000 05A1 // INT0: Off
; 0000 05A2 // INT0 Mode: Rising Edge
; 0000 05A3 // INT1: Off
; 0000 05A4 // INT1 Mode: Rising Edge
; 0000 05A5 // INT2: Off
; 0000 05A6 // INT2 Mode: Rising Edge
; 0000 05A7 GICR|=(0<<INT1) | (0<<INT0) | (0<<INT2);
	IN   R30,0x3B
	OUT  0x3B,R30
; 0000 05A8 //MCUCR=(1<<ISC11) | (1<<ISC10) | (1<<ISC01) | (1<<ISC00);
; 0000 05A9 //MCUCSR=(1<<ISC2);
; 0000 05AA GIFR=(0<<INTF1) | (0<<INTF0) | (0<<INTF2);
	LDI  R30,LOW(0)
	OUT  0x3A,R30
; 0000 05AB 
; 0000 05AC ////////////////////////////
; 0000 05AD glcd_init_data.font=font5x7;
	LDI  R30,LOW(_font5x7*2)
	LDI  R31,HIGH(_font5x7*2)
	ST   Y,R30
	STD  Y+1,R31
; 0000 05AE glcd_init_data.readxmem=NULL;
	LDI  R30,LOW(0)
	STD  Y+2,R30
	STD  Y+2+1,R30
; 0000 05AF glcd_init_data.writexmem=NULL;
	STD  Y+4,R30
	STD  Y+4+1,R30
; 0000 05B0 glcd_init(&glcd_init_data);
	MOVW R26,R28
	CALL _glcd_init
; 0000 05B1 
; 0000 05B2 // Global enable interrupts
; 0000 05B3 #asm("sei")
	sei
; 0000 05B4 
; 0000 05B5 Rs= 32;
	LDI  R30,LOW(32)
	LDI  R31,HIGH(32)
	STS  _Rs,R30
	STS  _Rs+1,R31
; 0000 05B6 Rm= 28;
	LDI  R30,LOW(28)
	LDI  R31,HIGH(28)
	STS  _Rm,R30
	STS  _Rm+1,R31
; 0000 05B7 Rh= 18;
	LDI  R30,LOW(18)
	LDI  R31,HIGH(18)
	STS  _Rh,R30
	STS  _Rh+1,R31
; 0000 05B8 
; 0000 05B9 x=123;
	LDI  R30,LOW(123)
	LDI  R31,HIGH(123)
	STS  _x,R30
	STS  _x+1,R31
; 0000 05BA y=55;
	LDI  R30,LOW(55)
	LDI  R31,HIGH(55)
	STS  _y,R30
	STS  _y+1,R31
; 0000 05BB 
; 0000 05BC init_clock();
	RCALL _init_clock
; 0000 05BD glcd_putimagef(69,0,clock_0,GLCD_PUTCOPY);
	LDI  R30,LOW(69)
	ST   -Y,R30
	LDI  R30,LOW(0)
	ST   -Y,R30
	LDI  R30,LOW(_clock_0*2)
	LDI  R31,HIGH(_clock_0*2)
	CALL SUBOPT_0x4D
; 0000 05BE glcd_setfillcolor(0);
	CALL SUBOPT_0x52
; 0000 05BF glcd_fillcircle(x,y,32);
; 0000 05C0 
; 0000 05C1 
; 0000 05C2 glcd_outtextxy(0,111,"----------------------------------------");
	CALL SUBOPT_0x26
	__POINTW2MN _0x211,0
	CALL _glcd_outtextxy
; 0000 05C3 
; 0000 05C4 
; 0000 05C5 while (1)
_0x212:
; 0000 05C6       {
; 0000 05C7       show_clock();
	RCALL _show_clock
; 0000 05C8        if(PIND.1==1)
	SBIS 0x10,1
	RJMP _0x215
; 0000 05C9        {
; 0000 05CA         button0();
	RCALL _button0
; 0000 05CB        }
; 0000 05CC        else if(PIND.2==1)
	RJMP _0x216
_0x215:
	SBIS 0x10,2
	RJMP _0x217
; 0000 05CD        {
; 0000 05CE         button1();
	RCALL _button1
; 0000 05CF        }
; 0000 05D0        else if(PIND.3==1)
	RJMP _0x218
_0x217:
	SBIC 0x10,3
; 0000 05D1        {
; 0000 05D2         button2();
	RCALL _button2
; 0000 05D3        }
; 0000 05D4 
; 0000 05D5       }
_0x218:
_0x216:
	RJMP _0x212
; 0000 05D6 }
_0x21A:
	RJMP _0x21A
; .FEND

	.DSEG
_0x211:
	.BYTE 0x29
;
	#ifndef __SLEEP_DEFINED__
	#define __SLEEP_DEFINED__
	.EQU __se_bit=0x80
	.EQU __sm_mask=0x70
	.EQU __sm_powerdown=0x20
	.EQU __sm_powersave=0x30
	.EQU __sm_standby=0x60
	.EQU __sm_ext_standby=0x70
	.EQU __sm_adc_noise_red=0x10
	.SET power_ctrl_reg=mcucr
	#endif

	.CSEG
_t6963_wrbus_G100:
; .FSTART _t6963_wrbus_G100
	ST   -Y,R26
	CBI  0x15,1
	CBI  0x15,3
	LDI  R30,LOW(255)
	OUT  0x1A,R30
	LD   R30,Y
	OUT  0x1B,R30
    nop
    nop
    nop
    nop
    nop
    nop
    nop
    nop
	SBI  0x15,3
    nop
    nop
	SBI  0x15,1
	RJMP _0x2120011
; .FEND
_t6963_rdbus_G100:
; .FSTART _t6963_rdbus_G100
	ST   -Y,R17
	CBI  0x15,1
	CBI  0x15,2
	LDI  R30,LOW(0)
	OUT  0x1A,R30
    nop
    nop
    nop
    nop
    nop
    nop
    nop
    nop
	IN   R17,25
	SBI  0x15,2
	SBI  0x15,1
	MOV  R30,R17
	LD   R17,Y+
	RET
; .FEND
_t6963_busy:
; .FSTART _t6963_busy
	SBI  0x15,0
_0x2000003:
	RCALL _t6963_rdbus_G100
	ANDI R30,LOW(0x3)
	CPI  R30,LOW(0x3)
	BRNE _0x2000003
	RET
; .FEND
_t6963_wrdata:
; .FSTART _t6963_wrdata
	ST   -Y,R26
	RCALL _t6963_busy
	CBI  0x15,0
	LD   R26,Y
	CALL _t6963_wrbus_G100
	RJMP _0x2120011
; .FEND
_t6963_rddata:
; .FSTART _t6963_rddata
	RCALL _t6963_busy
	CBI  0x15,0
	RCALL _t6963_rdbus_G100
	RET
; .FEND
_t6963_wrcmd:
; .FSTART _t6963_wrcmd
	ST   -Y,R26
	RCALL _t6963_busy
	LD   R26,Y
	CALL _t6963_wrbus_G100
	RJMP _0x2120011
; .FEND
_t6963_setaddrptr_G100:
; .FSTART _t6963_setaddrptr_G100
	ST   -Y,R27
	ST   -Y,R26
	LD   R26,Y
	RCALL _t6963_wrdata
	LDD  R26,Y+1
	RCALL _t6963_wrdata
	LDI  R26,LOW(36)
	RCALL _t6963_wrcmd
	RJMP _0x212000B
; .FEND
_t6963_rdbyte_G100:
; .FSTART _t6963_rdbyte_G100
	ST   -Y,R26
	LD   R26,Y
	LDI  R30,LOW(30)
	MUL  R30,R26
	MOVW R30,R0
	SUBI R30,LOW(-480)
	SBCI R31,HIGH(-480)
	MOVW R26,R30
	LDD  R30,Y+1
	LSR  R30
	LSR  R30
	LSR  R30
	LDI  R31,0
	ADD  R26,R30
	ADC  R27,R31
	RCALL _t6963_setaddrptr_G100
	LDI  R26,LOW(197)
	RCALL _t6963_wrcmd
	RCALL _t6963_rddata
	RJMP _0x212000B
; .FEND
_t6963_wrbyte_G100:
; .FSTART _t6963_wrbyte_G100
	ST   -Y,R26
	LD   R26,Y
	RCALL _t6963_wrdata
	LDI  R26,LOW(196)
	RJMP _0x2120010
; .FEND
_glcd_init:
; .FSTART _glcd_init
	ST   -Y,R27
	ST   -Y,R26
	SBI  0x14,1
	SBI  0x15,1
	SBI  0x14,2
	SBI  0x15,2
	SBI  0x14,3
	SBI  0x15,3
	SBI  0x14,0
	SBI  0x14,4
	CBI  0x15,4
	LDI  R26,LOW(10)
	LDI  R27,0
	CALL _delay_ms
	SBI  0x15,4
	LDI  R26,LOW(10)
	LDI  R27,0
	CALL _delay_ms
	LDI  R26,LOW(0)
	CALL SUBOPT_0x53
	LDI  R26,LOW(64)
	RCALL _t6963_wrcmd
	LDI  R26,LOW(30)
	CALL SUBOPT_0x53
	LDI  R26,LOW(65)
	RCALL _t6963_wrcmd
	LDI  R26,LOW(224)
	RCALL _t6963_wrdata
	LDI  R26,LOW(1)
	RCALL _t6963_wrdata
	LDI  R26,LOW(66)
	RCALL _t6963_wrcmd
	LDI  R26,LOW(30)
	CALL SUBOPT_0x53
	LDI  R26,LOW(67)
	RCALL _t6963_wrcmd
	LDI  R26,LOW(3)
	CALL SUBOPT_0x53
	LDI  R26,LOW(34)
	RCALL _t6963_wrcmd
	LDI  R26,LOW(128)
	RCALL _t6963_wrcmd
	LDI  R26,LOW(1)
	RCALL _glcd_display
	LDI  R30,LOW(1)
	STS  _glcd_state,R30
	LDI  R30,LOW(0)
	__PUTB1MN _glcd_state,1
	LDI  R30,LOW(1)
	__PUTB1MN _glcd_state,6
	__PUTB1MN _glcd_state,7
	LD   R30,Y
	LDD  R31,Y+1
	SBIW R30,0
	BREQ _0x2000006
	LD   R26,Y
	LDD  R27,Y+1
	CALL __GETW1P
	__PUTW1MN _glcd_state,4
	ADIW R26,2
	CALL __GETW1P
	__PUTW1MN _glcd_state,25
	LD   R26,Y
	LDD  R27,Y+1
	ADIW R26,4
	CALL __GETW1P
	RJMP _0x200008A
_0x2000006:
	LDI  R30,LOW(0)
	LDI  R31,HIGH(0)
	__PUTW1MN _glcd_state,4
	__PUTW1MN _glcd_state,25
_0x200008A:
	__PUTW1MN _glcd_state,27
	CALL SUBOPT_0x54
	LDI  R30,LOW(1)
	__PUTB1MN _glcd_state,16
	__POINTW1MN _glcd_state,17
	ST   -Y,R31
	ST   -Y,R30
	LDI  R30,LOW(255)
	ST   -Y,R30
	LDI  R26,LOW(8)
	LDI  R27,0
	CALL _memset
	RCALL _glcd_clear
	LDI  R30,LOW(1)
	RJMP _0x212000B
; .FEND
_glcd_display:
; .FSTART _glcd_display
	ST   -Y,R26
	LD   R30,Y
	CPI  R30,0
	BREQ _0x2000008
	LDI  R30,LOW(156)
	RJMP _0x2000009
_0x2000008:
	LDI  R30,LOW(144)
_0x2000009:
	MOV  R26,R30
_0x2120010:
	RCALL _t6963_wrcmd
_0x2120011:
	ADIW R28,1
	RET
; .FEND
_glcd_cleartext:
; .FSTART _glcd_cleartext
	ST   -Y,R17
	ST   -Y,R16
	LDI  R26,LOW(0)
	LDI  R27,0
	RCALL _t6963_setaddrptr_G100
	__GETWRN 16,17,480
_0x200000B:
	MOVW R30,R16
	__SUBWRN 16,17,1
	SBIW R30,0
	BREQ _0x200000D
	LDI  R26,LOW(0)
	RCALL _t6963_wrdata
	LDI  R26,LOW(192)
	RCALL _t6963_wrcmd
	RJMP _0x200000B
_0x200000D:
	LDI  R30,LOW(0)
	ST   -Y,R30
	LDI  R26,LOW(0)
	RCALL _glcd_moveto
	LD   R16,Y+
	LD   R17,Y+
	RET
; .FEND
_glcd_cleargraphics:
; .FSTART _glcd_cleargraphics
	CALL __SAVELOCR4
	LDI  R19,0
	__GETB1MN _glcd_state,1
	CPI  R30,0
	BREQ _0x200000E
	LDI  R19,LOW(255)
_0x200000E:
	LDI  R26,LOW(480)
	LDI  R27,HIGH(480)
	RCALL _t6963_setaddrptr_G100
	__GETWRN 16,17,3840
_0x200000F:
	MOVW R30,R16
	__SUBWRN 16,17,1
	SBIW R30,0
	BREQ _0x2000011
	MOV  R26,R19
	RCALL _t6963_wrdata
	LDI  R26,LOW(192)
	RCALL _t6963_wrcmd
	RJMP _0x200000F
_0x2000011:
	LDI  R30,LOW(0)
	ST   -Y,R30
	LDI  R26,LOW(0)
	RCALL _glcd_moveto
	CALL __LOADLOCR4
	ADIW R28,4
	RET
; .FEND
_glcd_clear:
; .FSTART _glcd_clear
	RCALL _glcd_cleartext
	RCALL _glcd_cleargraphics
	RET
; .FEND
_glcd_putpixel:
; .FSTART _glcd_putpixel
	ST   -Y,R26
	ST   -Y,R17
	ST   -Y,R16
	LDD  R26,Y+4
	CPI  R26,LOW(0xF0)
	BRSH _0x2000013
	LDD  R26,Y+3
	CPI  R26,LOW(0x80)
	BRLO _0x2000012
_0x2000013:
	LDD  R17,Y+1
	LDD  R16,Y+0
	RJMP _0x212000E
_0x2000012:
	LDD  R30,Y+4
	ST   -Y,R30
	LDD  R26,Y+4
	RCALL _t6963_rdbyte_G100
	MOV  R17,R30
	LDD  R30,Y+4
	CALL SUBOPT_0x55
	MOV  R16,R30
	LDD  R30,Y+2
	CPI  R30,0
	BREQ _0x2000015
	OR   R17,R16
	RJMP _0x2000016
_0x2000015:
	MOV  R30,R16
	COM  R30
	AND  R17,R30
_0x2000016:
	MOV  R26,R17
	RCALL _t6963_wrbyte_G100
	LDD  R17,Y+1
	LDD  R16,Y+0
	RJMP _0x212000E
; .FEND
_glcd_getpixel:
; .FSTART _glcd_getpixel
	ST   -Y,R26
	LDD  R26,Y+1
	CPI  R26,LOW(0xF0)
	BRSH _0x2000018
	LD   R26,Y
	CPI  R26,LOW(0x80)
	BRLO _0x2000017
_0x2000018:
	LDI  R30,LOW(0)
	RJMP _0x212000B
_0x2000017:
	LDD  R30,Y+1
	ST   -Y,R30
	LDD  R26,Y+1
	RCALL _t6963_rdbyte_G100
	MOV  R22,R30
	LDD  R30,Y+1
	CALL SUBOPT_0x55
	AND  R30,R22
	BREQ _0x200001A
	LDI  R30,LOW(1)
	RJMP _0x200001B
_0x200001A:
	LDI  R30,LOW(0)
_0x200001B:
	RJMP _0x212000B
; .FEND
_t6963_wrmasked_G100:
; .FSTART _t6963_wrmasked_G100
	ST   -Y,R26
	ST   -Y,R17
	LDD  R30,Y+5
	ST   -Y,R30
	LDD  R26,Y+5
	CALL SUBOPT_0x56
	MOV  R17,R30
	LDD  R30,Y+1
	CPI  R30,LOW(0x7)
	BREQ _0x2000021
	CPI  R30,LOW(0x8)
	BRNE _0x2000022
_0x2000021:
	LDD  R30,Y+3
	ST   -Y,R30
	LDD  R26,Y+2
	CALL _glcd_mappixcolor1bit
	STD  Y+3,R30
	RJMP _0x2000023
_0x2000022:
	CPI  R30,LOW(0x3)
	BRNE _0x2000025
	LDD  R30,Y+3
	COM  R30
	STD  Y+3,R30
	RJMP _0x2000026
_0x2000025:
	CPI  R30,0
	BRNE _0x2000027
_0x2000026:
	RJMP _0x2000028
_0x2000027:
	CPI  R30,LOW(0x9)
	BRNE _0x2000029
_0x2000028:
	RJMP _0x200002A
_0x2000029:
	CPI  R30,LOW(0xA)
	BRNE _0x200002B
_0x200002A:
_0x2000023:
	LDD  R30,Y+2
	COM  R30
	AND  R17,R30
	RJMP _0x200002C
_0x200002B:
	CPI  R30,LOW(0x2)
	BRNE _0x200002D
_0x200002C:
	LDD  R30,Y+2
	LDD  R26,Y+3
	AND  R30,R26
	OR   R17,R30
	RJMP _0x200001F
_0x200002D:
	CPI  R30,LOW(0x1)
	BRNE _0x200002E
	LDD  R30,Y+2
	LDD  R26,Y+3
	AND  R30,R26
	EOR  R17,R30
	RJMP _0x200001F
_0x200002E:
	CPI  R30,LOW(0x4)
	BRNE _0x200001F
	LDD  R30,Y+2
	COM  R30
	LDD  R26,Y+3
	OR   R30,R26
	AND  R17,R30
_0x200001F:
	MOV  R26,R17
	CALL _glcd_revbits
	MOV  R26,R30
	RCALL _t6963_wrbyte_G100
	LDD  R17,Y+0
	ADIW R28,6
	RET
; .FEND
_glcd_block:
; .FSTART _glcd_block
	ST   -Y,R26
	SBIW R28,7
	CALL __SAVELOCR6
	LDD  R26,Y+20
	CPI  R26,LOW(0xF0)
	BRSH _0x2000031
	LDD  R26,Y+19
	CPI  R26,LOW(0x80)
	BRSH _0x2000031
	LDD  R26,Y+18
	CPI  R26,LOW(0x0)
	BREQ _0x2000031
	LDD  R26,Y+17
	CPI  R26,LOW(0x0)
	BRNE _0x2000030
_0x2000031:
	RJMP _0x212000A
_0x2000030:
	LDD  R30,Y+18
	LSR  R30
	LSR  R30
	LSR  R30
	MOV  R18,R30
	__PUTBSR 18,8
	LDD  R30,Y+18
	ANDI R30,LOW(0x7)
	STD  Y+11,R30
	CPI  R30,0
	BREQ _0x2000033
	LDD  R30,Y+8
	SUBI R30,-LOW(1)
	STD  Y+8,R30
_0x2000033:
	LDD  R16,Y+18
	LDD  R26,Y+20
	CLR  R27
	LDD  R30,Y+18
	LDI  R31,0
	ADD  R26,R30
	ADC  R27,R31
	CPI  R26,LOW(0xF1)
	LDI  R30,HIGH(0xF1)
	CPC  R27,R30
	BRLO _0x2000034
	LDD  R26,Y+20
	LDI  R30,LOW(240)
	SUB  R30,R26
	STD  Y+18,R30
_0x2000034:
	LDD  R30,Y+17
	STD  Y+10,R30
	LDD  R26,Y+19
	CLR  R27
	LDD  R30,Y+17
	LDI  R31,0
	ADD  R26,R30
	ADC  R27,R31
	CPI  R26,LOW(0x81)
	LDI  R30,HIGH(0x81)
	CPC  R27,R30
	BRLO _0x2000035
	LDD  R26,Y+19
	LDI  R30,LOW(128)
	SUB  R30,R26
	STD  Y+17,R30
_0x2000035:
	LDD  R30,Y+13
	CPI  R30,LOW(0x6)
	BREQ PC+2
	RJMP _0x2000039
	LDD  R30,Y+16
	CPI  R30,LOW(0x1)
	BRNE _0x200003D
	RJMP _0x212000A
_0x200003D:
	CPI  R30,LOW(0x3)
	BRNE _0x2000040
	__GETW1MN _glcd_state,27
	SBIW R30,0
	BRNE _0x200003F
	RJMP _0x212000A
_0x200003F:
_0x2000040:
	LDD  R30,Y+11
	CPI  R30,0
	BRNE _0x2000042
	LDD  R26,Y+18
	CP   R16,R26
	BREQ _0x2000041
_0x2000042:
	MOV  R30,R18
	LDD  R26,Y+14
	LDD  R27,Y+14+1
	LDI  R31,0
	CALL SUBOPT_0x57
	LDD  R17,Y+17
_0x2000044:
	CPI  R17,0
	BREQ _0x2000046
	MOV  R19,R18
_0x2000047:
	PUSH R19
	SUBI R19,-1
	LDD  R30,Y+8
	POP  R26
	CP   R26,R30
	BRSH _0x2000049
	CALL SUBOPT_0x58
	RJMP _0x2000047
_0x2000049:
	MOV  R30,R18
	LDD  R26,Y+6
	LDD  R27,Y+6+1
	LDI  R31,0
	CALL SUBOPT_0x57
	SUBI R17,LOW(1)
	RJMP _0x2000044
_0x2000046:
_0x2000041:
	LDD  R18,Y+17
	LDD  R30,Y+10
	CP   R30,R18
	BREQ _0x200004A
	MOV  R26,R18
	CLR  R27
	LDD  R30,Y+8
	LDI  R31,0
	CALL __MULW12U
	LDD  R26,Y+14
	LDD  R27,Y+14+1
	CALL SUBOPT_0x57
_0x200004B:
	PUSH R18
	SUBI R18,-1
	LDD  R30,Y+10
	POP  R26
	CP   R26,R30
	BRSH _0x200004D
	LDI  R19,LOW(0)
_0x200004E:
	PUSH R19
	SUBI R19,-1
	LDD  R30,Y+8
	POP  R26
	CP   R26,R30
	BRSH _0x2000050
	CALL SUBOPT_0x58
	RJMP _0x200004E
_0x2000050:
	RJMP _0x200004B
_0x200004D:
_0x200004A:
	RJMP _0x2000038
_0x2000039:
	CPI  R30,LOW(0x9)
	BRNE _0x2000051
	LDI  R30,LOW(0)
	RJMP _0x200008B
_0x2000051:
	CPI  R30,LOW(0xA)
	BRNE _0x2000038
	LDI  R30,LOW(255)
_0x200008B:
	STD  Y+10,R30
	ST   -Y,R30
	LDD  R26,Y+14
	CALL _glcd_mappixcolor1bit
	STD  Y+10,R30
_0x2000038:
	LDD  R30,Y+20
	ANDI R30,LOW(0x7)
	MOV  R19,R30
	LDI  R30,LOW(8)
	SUB  R30,R19
	MOV  R18,R30
	MOV  R21,R18
	LDD  R26,Y+18
	CP   R18,R26
	BRLO _0x2000055
	LDD  R21,Y+18
	RJMP _0x2000056
_0x2000055:
	CPI  R19,0
	BREQ _0x2000057
	MOV  R20,R19
	LDD  R26,Y+18
	CPI  R26,LOW(0x9)
	BRSH _0x2000058
	LDD  R30,Y+18
	SUB  R30,R18
	MOV  R20,R30
_0x2000058:
	MOV  R30,R20
	LDI  R31,0
	SUBI R30,LOW(-__glcd_mask*2)
	SBCI R31,HIGH(-__glcd_mask*2)
	LPM  R20,Z
_0x2000057:
_0x2000056:
	ST   -Y,R19
	MOV  R26,R21
	CALL _glcd_getmask
	MOV  R21,R30
	LDD  R26,Y+11
	CP   R18,R26
	BRSH _0x2000059
	LDD  R30,Y+11
	SUB  R30,R18
	STD  Y+11,R30
_0x2000059:
	LDD  R30,Y+11
	LDI  R31,0
	SUBI R30,LOW(-__glcd_mask*2)
	SBCI R31,HIGH(-__glcd_mask*2)
	LPM  R0,Z
	STD  Y+12,R0
_0x200005A:
	LDD  R30,Y+17
	SUBI R30,LOW(1)
	STD  Y+17,R30
	SUBI R30,-LOW(1)
	BRNE PC+2
	RJMP _0x200005C
	LDI  R17,LOW(0)
	LDD  R16,Y+20
	LDD  R30,Y+14
	LDD  R31,Y+14+1
	STD  Y+6,R30
	STD  Y+6+1,R31
	CPI  R19,0
	BRNE PC+2
	RJMP _0x200005D
	__PUTBSR 20,11
	LDD  R26,Y+13
	CPI  R26,LOW(0x6)
	BREQ PC+2
	RJMP _0x200005E
_0x200005F:
	LDD  R30,Y+18
	CP   R17,R30
	BRLO PC+2
	RJMP _0x2000061
	ST   -Y,R16
	LDD  R26,Y+20
	CALL SUBOPT_0x56
	AND  R30,R21
	MOV  R26,R30
	MOV  R30,R19
	CALL __LSRB12
	STD  Y+9,R30
	CALL SUBOPT_0x59
	MOV  R1,R30
	MOV  R30,R19
	MOV  R26,R21
	CALL __LSRB12
	COM  R30
	AND  R30,R1
	LDD  R26,Y+9
	OR   R30,R26
	STD  Y+9,R30
	LDD  R26,Y+18
	CP   R18,R26
	BRSH _0x2000063
	MOV  R30,R16
	LSR  R30
	LSR  R30
	LSR  R30
	CPI  R30,LOW(0x1D)
	BRLO _0x2000062
_0x2000063:
	CALL SUBOPT_0x5A
	ST   -Y,R31
	ST   -Y,R30
	LDD  R26,Y+12
	CALL _glcd_writemem
	RJMP _0x2000061
_0x2000062:
	LDD  R26,Y+18
	SUB  R26,R17
	CPI  R26,LOW(0x8)
	BRSH _0x2000065
	LDD  R30,Y+12
	STD  Y+11,R30
_0x2000065:
	SUBI R16,-LOW(8)
	ST   -Y,R16
	LDD  R26,Y+20
	CALL SUBOPT_0x56
	LDD  R26,Y+11
	AND  R30,R26
	MOV  R26,R30
	MOV  R30,R18
	CALL __LSLB12
	STD  Y+10,R30
	MOV  R30,R18
	LDD  R26,Y+11
	CALL __LSLB12
	COM  R30
	LDD  R26,Y+9
	AND  R30,R26
	LDD  R26,Y+10
	OR   R30,R26
	STD  Y+10,R30
	CALL SUBOPT_0x5A
	ADIW R30,1
	STD  Y+7,R30
	STD  Y+7+1,R31
	SBIW R30,1
	ST   -Y,R31
	ST   -Y,R30
	LDD  R26,Y+13
	CALL _glcd_writemem
	SUBI R17,-LOW(8)
	RJMP _0x200005F
_0x2000061:
	RJMP _0x2000066
_0x200005E:
_0x2000067:
	LDD  R30,Y+18
	CP   R17,R30
	BRSH _0x2000069
	LDD  R30,Y+13
	CPI  R30,LOW(0x9)
	BREQ _0x200006E
	CPI  R30,LOW(0xA)
	BRNE _0x2000070
_0x200006E:
	RJMP _0x200006C
_0x2000070:
	CALL SUBOPT_0x5A
	ADIW R30,1
	STD  Y+7,R30
	STD  Y+7+1,R31
	SBIW R30,1
	CLR  R22
	CLR  R23
	MOVW R26,R30
	MOVW R24,R22
	CALL _glcd_readmem
	STD  Y+10,R30
_0x200006C:
	ST   -Y,R16
	LDD  R30,Y+20
	ST   -Y,R30
	MOV  R30,R19
	LDD  R26,Y+12
	CALL __LSLB12
	ST   -Y,R30
	ST   -Y,R21
	LDD  R26,Y+17
	RCALL _t6963_wrmasked_G100
	LDD  R26,Y+18
	CP   R18,R26
	BRSH _0x2000069
	MOV  R30,R16
	LSR  R30
	LSR  R30
	LSR  R30
	CPI  R30,LOW(0x1D)
	BRSH _0x2000069
	SUB  R26,R17
	CPI  R26,LOW(0x8)
	BRSH _0x2000073
	LDD  R30,Y+12
	STD  Y+11,R30
_0x2000073:
	SUBI R16,-LOW(8)
	ST   -Y,R16
	LDD  R30,Y+20
	ST   -Y,R30
	MOV  R30,R18
	LDD  R26,Y+12
	CALL __LSRB12
	CALL SUBOPT_0x5B
	SUBI R17,-LOW(8)
	RJMP _0x2000067
_0x2000069:
_0x2000066:
	RJMP _0x2000074
_0x200005D:
	__PUTBSR 21,11
_0x2000075:
	LDD  R30,Y+18
	CP   R17,R30
	BRSH _0x2000077
	LDD  R26,Y+18
	SUB  R26,R17
	CPI  R26,LOW(0x8)
	BRSH _0x2000078
	LDD  R30,Y+12
	STD  Y+11,R30
_0x2000078:
	LDD  R30,Y+13
	CPI  R30,LOW(0x9)
	BREQ _0x200007D
	CPI  R30,LOW(0xA)
	BRNE _0x200007F
_0x200007D:
	RJMP _0x200007B
_0x200007F:
	LDD  R26,Y+13
	CPI  R26,LOW(0x6)
	BRNE _0x2000081
	LDD  R26,Y+11
	CPI  R26,LOW(0xFF)
	BREQ _0x2000080
_0x2000081:
	CALL SUBOPT_0x59
	STD  Y+10,R30
_0x2000080:
_0x200007B:
	LDD  R26,Y+13
	CPI  R26,LOW(0x6)
	BRNE _0x2000083
	CALL SUBOPT_0x5A
	ST   -Y,R31
	ST   -Y,R30
	ST   -Y,R16
	LDD  R26,Y+23
	CALL SUBOPT_0x56
	LDD  R26,Y+14
	AND  R30,R26
	MOV  R0,R30
	LDD  R30,Y+14
	COM  R30
	LDD  R26,Y+13
	AND  R30,R26
	OR   R30,R0
	MOV  R26,R30
	CALL _glcd_writemem
	RJMP _0x2000084
_0x2000083:
	ST   -Y,R16
	LDD  R30,Y+20
	ST   -Y,R30
	LDD  R30,Y+12
	CALL SUBOPT_0x5B
_0x2000084:
	LDD  R30,Y+6
	LDD  R31,Y+6+1
	ADIW R30,1
	STD  Y+6,R30
	STD  Y+6+1,R31
	SUBI R16,-LOW(8)
	SUBI R17,-LOW(8)
	RJMP _0x2000075
_0x2000077:
_0x2000074:
	LDD  R30,Y+19
	SUBI R30,-LOW(1)
	STD  Y+19,R30
	LDD  R30,Y+8
	LDD  R26,Y+14
	LDD  R27,Y+14+1
	LDI  R31,0
	ADD  R30,R26
	ADC  R31,R27
	STD  Y+14,R30
	STD  Y+14+1,R31
	RJMP _0x200005A
_0x200005C:
	RJMP _0x212000A
; .FEND
_glcd_putcharcg:
; .FSTART _glcd_putcharcg
	ST   -Y,R26
	LDD  R26,Y+1
	LDI  R30,LOW(30)
	MUL  R30,R26
	MOVW R30,R0
	MOVW R26,R30
	LDD  R30,Y+2
	LDI  R31,0
	ADD  R26,R30
	ADC  R27,R31
	RCALL _t6963_setaddrptr_G100
	LD   R26,Y
	CPI  R26,LOW(0x80)
	BRSH _0x2000085
	LD   R30,Y
	SUBI R30,LOW(32)
	ST   Y,R30
_0x2000085:
	LD   R26,Y
	RCALL _t6963_wrdata
	LDI  R26,LOW(196)
	RCALL _t6963_wrcmd
	RJMP _0x212000C
; .FEND

	.CSEG
_glcd_clipx:
; .FSTART _glcd_clipx
	CALL SUBOPT_0x0
	CALL __CPW02
	BRLT _0x2020003
	LDI  R30,LOW(0)
	LDI  R31,HIGH(0)
	RJMP _0x212000B
_0x2020003:
	LD   R26,Y
	LDD  R27,Y+1
	CPI  R26,LOW(0xF0)
	LDI  R30,HIGH(0xF0)
	CPC  R27,R30
	BRLT _0x2020004
	LDI  R30,LOW(239)
	LDI  R31,HIGH(239)
	RJMP _0x212000B
_0x2020004:
	LD   R30,Y
	LDD  R31,Y+1
	RJMP _0x212000B
; .FEND
_glcd_clipy:
; .FSTART _glcd_clipy
	CALL SUBOPT_0x0
	CALL __CPW02
	BRLT _0x2020005
	LDI  R30,LOW(0)
	LDI  R31,HIGH(0)
	RJMP _0x212000B
_0x2020005:
	LD   R26,Y
	LDD  R27,Y+1
	CPI  R26,LOW(0x80)
	LDI  R30,HIGH(0x80)
	CPC  R27,R30
	BRLT _0x2020006
	LDI  R30,LOW(127)
	LDI  R31,HIGH(127)
	RJMP _0x212000B
_0x2020006:
	LD   R30,Y
	LDD  R31,Y+1
	RJMP _0x212000B
; .FEND
_glcd_setpixel:
; .FSTART _glcd_setpixel
	ST   -Y,R26
	LDD  R30,Y+1
	ST   -Y,R30
	LDD  R30,Y+1
	ST   -Y,R30
	LDS  R26,_glcd_state
	RCALL _glcd_putpixel
	RJMP _0x212000B
; .FEND
_glcd_imagesize:
; .FSTART _glcd_imagesize
	ST   -Y,R26
	ST   -Y,R17
	LDD  R26,Y+2
	CPI  R26,LOW(0xF0)
	BRSH _0x2020008
	LDD  R26,Y+1
	CPI  R26,LOW(0x80)
	BRLO _0x2020007
_0x2020008:
	__GETD1N 0x0
	LDD  R17,Y+0
	RJMP _0x212000C
_0x2020007:
	LDD  R30,Y+2
	ANDI R30,LOW(0x7)
	MOV  R17,R30
	LDD  R30,Y+2
	LSR  R30
	LSR  R30
	LSR  R30
	STD  Y+2,R30
	CPI  R17,0
	BREQ _0x202000A
	SUBI R30,-LOW(1)
	STD  Y+2,R30
_0x202000A:
	LDD  R26,Y+2
	CLR  R27
	CLR  R24
	CLR  R25
	LDD  R30,Y+1
	CLR  R31
	CLR  R22
	CLR  R23
	CALL __MULD12U
	__ADDD1N 4
	LDD  R17,Y+0
	RJMP _0x212000C
; .FEND
_glcd_getcharw_G101:
; .FSTART _glcd_getcharw_G101
	ST   -Y,R27
	ST   -Y,R26
	SBIW R28,3
	CALL SUBOPT_0x5C
	MOVW R16,R30
	MOV  R0,R16
	OR   R0,R17
	BRNE _0x202000B
	LDI  R30,LOW(0)
	LDI  R31,HIGH(0)
	RJMP _0x212000F
_0x202000B:
	CALL SUBOPT_0x5D
	STD  Y+7,R0
	CALL SUBOPT_0x5D
	STD  Y+6,R0
	CALL SUBOPT_0x5D
	STD  Y+8,R0
	LDD  R30,Y+11
	LDD  R26,Y+8
	CP   R30,R26
	BRSH _0x202000C
	LDI  R30,LOW(0)
	LDI  R31,HIGH(0)
	RJMP _0x212000F
_0x202000C:
	MOVW R30,R16
	__ADDWRN 16,17,1
	LPM  R21,Z
	LDD  R26,Y+8
	CLR  R27
	CLR  R30
	ADD  R26,R21
	ADC  R27,R30
	LDD  R30,Y+11
	LDI  R31,0
	CP   R30,R26
	CPC  R31,R27
	BRLO _0x202000D
	LDI  R30,LOW(0)
	LDI  R31,HIGH(0)
	RJMP _0x212000F
_0x202000D:
	LDD  R30,Y+7
	CPI  R30,0
	BREQ _0x202000E
	LDD  R26,Y+9
	LDD  R27,Y+9+1
	ST   X,R30
	LSR  R30
	LSR  R30
	LSR  R30
	MOV  R20,R30
	LDD  R30,Y+7
	ANDI R30,LOW(0x7)
	BREQ _0x202000F
	SUBI R20,-LOW(1)
_0x202000F:
	LDD  R26,Y+8
	LDD  R30,Y+11
	SUB  R30,R26
	LDI  R31,0
	MOVW R26,R30
	LDD  R30,Y+6
	LDI  R31,0
	CALL __MULW12U
	MOVW R26,R30
	MOV  R30,R20
	LDI  R31,0
	CALL __MULW12U
	ADD  R30,R16
	ADC  R31,R17
	RJMP _0x212000F
_0x202000E:
	MOVW R18,R16
	MOV  R30,R21
	LDI  R31,0
	__ADDWRR 16,17,30,31
_0x2020010:
	LDD  R26,Y+8
	SUBI R26,-LOW(1)
	STD  Y+8,R26
	SUBI R26,LOW(1)
	LDD  R30,Y+11
	CP   R26,R30
	BRSH _0x2020012
	MOVW R30,R18
	LPM  R30,Z
	LSR  R30
	LSR  R30
	LSR  R30
	MOV  R20,R30
	MOVW R30,R18
	__ADDWRN 18,19,1
	LPM  R30,Z
	ANDI R30,LOW(0x7)
	BREQ _0x2020013
	SUBI R20,-LOW(1)
_0x2020013:
	LDD  R26,Y+6
	CLR  R27
	MOV  R30,R20
	LDI  R31,0
	CALL __MULW12U
	__ADDWRR 16,17,30,31
	RJMP _0x2020010
_0x2020012:
	MOVW R30,R18
	LPM  R30,Z
	LDD  R26,Y+9
	LDD  R27,Y+9+1
	ST   X,R30
	MOVW R30,R16
_0x212000F:
	CALL __LOADLOCR6
	ADIW R28,12
	RET
; .FEND
_glcd_new_line_G101:
; .FSTART _glcd_new_line_G101
	LDI  R30,LOW(0)
	__PUTB1MN _glcd_state,2
	__GETB2MN _glcd_state,3
	CLR  R27
	CALL SUBOPT_0x5E
	LDI  R31,0
	ADD  R26,R30
	ADC  R27,R31
	__GETB1MN _glcd_state,7
	LDI  R31,0
	ADD  R26,R30
	ADC  R27,R31
	CALL SUBOPT_0x5F
	RET
; .FEND
_glcd_putchar:
; .FSTART _glcd_putchar
	ST   -Y,R26
	SBIW R28,1
	CALL SUBOPT_0x5C
	SBIW R30,0
	BRNE PC+2
	RJMP _0x2020020
	LDD  R26,Y+7
	CPI  R26,LOW(0xA)
	BRNE _0x2020021
	RJMP _0x2020022
_0x2020021:
	LDD  R30,Y+7
	ST   -Y,R30
	MOVW R26,R28
	ADIW R26,7
	RCALL _glcd_getcharw_G101
	MOVW R20,R30
	SBIW R30,0
	BRNE _0x2020023
	CALL __LOADLOCR6
	RJMP _0x2120009
_0x2020023:
	__GETB1MN _glcd_state,6
	LDD  R26,Y+6
	ADD  R30,R26
	MOV  R19,R30
	__GETB2MN _glcd_state,2
	CLR  R27
	CALL SUBOPT_0x60
	__CPWRN 16,17,241
	BRLO _0x2020024
	MOV  R16,R19
	CLR  R17
	RCALL _glcd_new_line_G101
_0x2020024:
	CALL SUBOPT_0x61
	LDD  R30,Y+8
	ST   -Y,R30
	CALL SUBOPT_0x5E
	ST   -Y,R30
	LDI  R30,LOW(1)
	ST   -Y,R30
	ST   -Y,R21
	ST   -Y,R20
	LDI  R26,LOW(7)
	CALL SUBOPT_0x62
	LDD  R26,Y+6
	ADD  R30,R26
	ST   -Y,R30
	__GETB1MN _glcd_state,3
	ST   -Y,R30
	__GETB1MN _glcd_state,6
	ST   -Y,R30
	CALL SUBOPT_0x5E
	CALL SUBOPT_0x63
	CALL SUBOPT_0x62
	ST   -Y,R30
	__GETB2MN _glcd_state,3
	CALL SUBOPT_0x5E
	ADD  R30,R26
	ST   -Y,R30
	ST   -Y,R19
	__GETB1MN _glcd_state,7
	CALL SUBOPT_0x63
	RCALL _glcd_block
	LDI  R30,LOW(240)
	LDI  R31,HIGH(240)
	CP   R30,R16
	CPC  R31,R17
	BRNE _0x2020025
_0x2020022:
	RCALL _glcd_new_line_G101
	CALL __LOADLOCR6
	RJMP _0x2120009
_0x2020025:
	RJMP _0x2020026
_0x2020020:
	LDD  R26,Y+7
	CPI  R26,LOW(0xA)
	BREQ _0x2020028
	__GETB1MN _glcd_state,2
	LSR  R30
	LSR  R30
	LSR  R30
	MOV  R19,R30
	__GETB1MN _glcd_state,3
	LSR  R30
	LSR  R30
	LSR  R30
	MOV  R18,R30
	ST   -Y,R19
	ST   -Y,R18
	LDD  R26,Y+9
	RCALL _glcd_putcharcg
	MOV  R30,R19
	LSL  R30
	LSL  R30
	LSL  R30
	__PUTB1MN _glcd_state,2
	MOV  R30,R18
	LSL  R30
	LSL  R30
	LSL  R30
	__PUTB1MN _glcd_state,3
	CALL SUBOPT_0x61
	LDI  R30,LOW(8)
	ST   -Y,R30
	CALL SUBOPT_0x63
	CALL SUBOPT_0x62
	LDI  R31,0
	ADIW R30,8
	MOVW R16,R30
	__CPWRN 16,17,240
	BRLO _0x2020029
_0x2020028:
	__GETWRN 16,17,0
	__GETB1MN _glcd_state,3
	LDI  R31,0
	ADIW R30,8
	MOVW R26,R30
	CALL SUBOPT_0x5F
_0x2020029:
_0x2020026:
	__PUTBMRN _glcd_state,2,16
	CALL __LOADLOCR6
	RJMP _0x2120009
; .FEND
_glcd_outtextxy:
; .FSTART _glcd_outtextxy
	ST   -Y,R27
	ST   -Y,R26
	ST   -Y,R17
	LDD  R30,Y+4
	ST   -Y,R30
	LDD  R26,Y+4
	RCALL _glcd_moveto
_0x202002A:
	LDD  R26,Y+1
	LDD  R27,Y+1+1
	LD   R30,X+
	STD  Y+1,R26
	STD  Y+1+1,R27
	MOV  R17,R30
	CPI  R30,0
	BREQ _0x202002C
	MOV  R26,R17
	RCALL _glcd_putchar
	RJMP _0x202002A
_0x202002C:
	LDD  R17,Y+0
_0x212000E:
	ADIW R28,5
	RET
; .FEND
_glcd_putimagef:
; .FSTART _glcd_putimagef
	ST   -Y,R26
	CALL __SAVELOCR4
	LDD  R26,Y+4
	CPI  R26,LOW(0x5)
	BRSH _0x202003D
	LDD  R30,Y+5
	LDD  R31,Y+5+1
	LPM  R16,Z+
	CALL SUBOPT_0x64
	LPM  R17,Z+
	CALL SUBOPT_0x64
	LPM  R18,Z+
	CALL SUBOPT_0x64
	LPM  R19,Z+
	STD  Y+5,R30
	STD  Y+5+1,R31
	LDD  R30,Y+8
	ST   -Y,R30
	LDD  R30,Y+8
	ST   -Y,R30
	ST   -Y,R16
	ST   -Y,R18
	LDI  R30,LOW(1)
	ST   -Y,R30
	LDD  R30,Y+10
	LDD  R31,Y+10+1
	ST   -Y,R31
	ST   -Y,R30
	LDD  R26,Y+11
	RCALL _glcd_block
	ST   -Y,R16
	MOV  R26,R18
	RCALL _glcd_imagesize
	RJMP _0x212000D
_0x202003D:
	__GETD1N 0x0
_0x212000D:
	CALL __LOADLOCR4
	ADIW R28,9
	RET
; .FEND
_glcd_putpixelm_G101:
; .FSTART _glcd_putpixelm_G101
	ST   -Y,R26
	LDD  R30,Y+2
	ST   -Y,R30
	LDD  R30,Y+2
	ST   -Y,R30
	__GETB1MN _glcd_state,9
	LDD  R26,Y+2
	AND  R30,R26
	BREQ _0x2020043
	LDS  R30,_glcd_state
	RJMP _0x2020044
_0x2020043:
	__GETB1MN _glcd_state,1
_0x2020044:
	MOV  R26,R30
	RCALL _glcd_putpixel
	LD   R30,Y
	LSL  R30
	ST   Y,R30
	CPI  R30,0
	BRNE _0x2020046
	LDI  R30,LOW(1)
	ST   Y,R30
_0x2020046:
	LD   R30,Y
_0x212000C:
	ADIW R28,3
	RET
; .FEND
_glcd_moveto:
; .FSTART _glcd_moveto
	ST   -Y,R26
	LDD  R26,Y+1
	CLR  R27
	RCALL _glcd_clipx
	__PUTB1MN _glcd_state,2
	LD   R26,Y
	CLR  R27
	CALL SUBOPT_0x5F
_0x212000B:
	ADIW R28,2
	RET
; .FEND
_glcd_line:
; .FSTART _glcd_line
	ST   -Y,R26
	SBIW R28,11
	CALL __SAVELOCR6
	LDD  R26,Y+20
	CLR  R27
	RCALL _glcd_clipx
	STD  Y+20,R30
	LDD  R26,Y+18
	CLR  R27
	RCALL _glcd_clipx
	STD  Y+18,R30
	LDD  R26,Y+19
	CLR  R27
	RCALL _glcd_clipy
	STD  Y+19,R30
	LDD  R26,Y+17
	CLR  R27
	RCALL _glcd_clipy
	STD  Y+17,R30
	LDD  R30,Y+18
	__PUTB1MN _glcd_state,2
	LDD  R30,Y+17
	__PUTB1MN _glcd_state,3
	LDI  R30,LOW(1)
	STD  Y+8,R30
	LDD  R30,Y+17
	LDD  R26,Y+19
	CP   R30,R26
	BRNE _0x2020047
	LDD  R17,Y+20
	LDD  R26,Y+18
	CP   R17,R26
	BRNE _0x2020048
	ST   -Y,R17
	LDD  R30,Y+20
	ST   -Y,R30
	LDI  R26,LOW(1)
	RCALL _glcd_putpixelm_G101
	RJMP _0x212000A
_0x2020048:
	LDD  R26,Y+18
	CP   R17,R26
	BRSH _0x2020049
	LDD  R30,Y+18
	SUB  R30,R17
	MOV  R16,R30
	__GETWRN 20,21,1
	RJMP _0x202004A
_0x2020049:
	LDD  R26,Y+18
	MOV  R30,R17
	SUB  R30,R26
	MOV  R16,R30
	__GETWRN 20,21,-1
_0x202004A:
_0x202004C:
	LDD  R19,Y+19
	LDI  R30,LOW(0)
	STD  Y+6,R30
_0x202004E:
	CALL SUBOPT_0x65
	BRSH _0x2020050
	ST   -Y,R17
	ST   -Y,R19
	INC  R19
	LDD  R26,Y+10
	RCALL _glcd_putpixelm_G101
	STD  Y+7,R30
	RJMP _0x202004E
_0x2020050:
	LDD  R30,Y+7
	STD  Y+8,R30
	ADD  R17,R20
	MOV  R30,R16
	SUBI R16,1
	CPI  R30,0
	BRNE _0x202004C
	RJMP _0x2020051
_0x2020047:
	LDD  R30,Y+18
	LDD  R26,Y+20
	CP   R30,R26
	BRNE _0x2020052
	LDD  R19,Y+19
	LDD  R26,Y+17
	CP   R19,R26
	BRSH _0x2020053
	LDD  R30,Y+17
	SUB  R30,R19
	MOV  R18,R30
	LDI  R30,LOW(1)
	LDI  R31,HIGH(1)
	RJMP _0x2020120
_0x2020053:
	LDD  R26,Y+17
	MOV  R30,R19
	SUB  R30,R26
	MOV  R18,R30
	LDI  R30,LOW(65535)
	LDI  R31,HIGH(65535)
_0x2020120:
	STD  Y+13,R30
	STD  Y+13+1,R31
_0x2020056:
	LDD  R17,Y+20
	LDI  R30,LOW(0)
	STD  Y+6,R30
_0x2020058:
	CALL SUBOPT_0x65
	BRSH _0x202005A
	ST   -Y,R17
	INC  R17
	CALL SUBOPT_0x66
	STD  Y+7,R30
	RJMP _0x2020058
_0x202005A:
	LDD  R30,Y+7
	STD  Y+8,R30
	LDD  R30,Y+13
	ADD  R19,R30
	MOV  R30,R18
	SUBI R18,1
	CPI  R30,0
	BRNE _0x2020056
	RJMP _0x202005B
_0x2020052:
	LDI  R30,LOW(0)
	STD  Y+6,R30
_0x202005C:
	CALL SUBOPT_0x65
	BRLO PC+2
	RJMP _0x202005E
	LDD  R17,Y+20
	LDD  R19,Y+19
	LDI  R30,LOW(1)
	MOV  R18,R30
	MOV  R16,R30
	LDD  R26,Y+18
	CLR  R27
	LDD  R30,Y+20
	LDI  R31,0
	SUB  R26,R30
	SBC  R27,R31
	MOVW R20,R26
	TST  R21
	BRPL _0x202005F
	LDI  R16,LOW(255)
	MOVW R30,R20
	CALL __ANEGW1
	MOVW R20,R30
_0x202005F:
	MOVW R30,R20
	LSL  R30
	ROL  R31
	STD  Y+15,R30
	STD  Y+15+1,R31
	LDD  R26,Y+17
	CLR  R27
	LDD  R30,Y+19
	LDI  R31,0
	SUB  R26,R30
	SBC  R27,R31
	STD  Y+13,R26
	STD  Y+13+1,R27
	LDD  R26,Y+14
	TST  R26
	BRPL _0x2020060
	LDI  R18,LOW(255)
	LDD  R30,Y+13
	LDD  R31,Y+13+1
	CALL __ANEGW1
	STD  Y+13,R30
	STD  Y+13+1,R31
_0x2020060:
	LDD  R30,Y+13
	LDD  R31,Y+13+1
	LSL  R30
	ROL  R31
	STD  Y+11,R30
	STD  Y+11+1,R31
	ST   -Y,R17
	ST   -Y,R19
	LDI  R26,LOW(1)
	RCALL _glcd_putpixelm_G101
	STD  Y+8,R30
	LDI  R30,LOW(0)
	STD  Y+9,R30
	STD  Y+9+1,R30
	LDD  R26,Y+13
	LDD  R27,Y+13+1
	CP   R20,R26
	CPC  R21,R27
	BRLT _0x2020061
_0x2020063:
	ADD  R17,R16
	LDD  R30,Y+11
	LDD  R31,Y+11+1
	CALL SUBOPT_0x67
	LDD  R26,Y+9
	LDD  R27,Y+9+1
	CP   R20,R26
	CPC  R21,R27
	BRGE _0x2020065
	ADD  R19,R18
	LDD  R26,Y+15
	LDD  R27,Y+15+1
	CALL SUBOPT_0x68
_0x2020065:
	ST   -Y,R17
	CALL SUBOPT_0x66
	STD  Y+8,R30
	LDD  R30,Y+18
	CP   R30,R17
	BRNE _0x2020063
	RJMP _0x2020066
_0x2020061:
_0x2020068:
	ADD  R19,R18
	LDD  R30,Y+15
	LDD  R31,Y+15+1
	CALL SUBOPT_0x67
	LDD  R30,Y+13
	LDD  R31,Y+13+1
	LDD  R26,Y+9
	LDD  R27,Y+9+1
	CP   R30,R26
	CPC  R31,R27
	BRGE _0x202006A
	ADD  R17,R16
	LDD  R26,Y+11
	LDD  R27,Y+11+1
	CALL SUBOPT_0x68
_0x202006A:
	ST   -Y,R17
	CALL SUBOPT_0x66
	STD  Y+8,R30
	LDD  R30,Y+17
	CP   R30,R19
	BRNE _0x2020068
_0x2020066:
	LDD  R30,Y+19
	SUBI R30,-LOW(1)
	STD  Y+19,R30
	LDD  R30,Y+17
	SUBI R30,-LOW(1)
	STD  Y+17,R30
	RJMP _0x202005C
_0x202005E:
_0x202005B:
_0x2020051:
_0x212000A:
	CALL __LOADLOCR6
	ADIW R28,21
	RET
; .FEND
_glcd_plot8_G101:
; .FSTART _glcd_plot8_G101
	ST   -Y,R27
	ST   -Y,R26
	SBIW R28,3
	CALL __SAVELOCR6
	LDD  R30,Y+13
	STD  Y+8,R30
	__GETB1MN _glcd_state,8
	STD  Y+7,R30
	LDS  R30,_glcd_state
	STD  Y+6,R30
	LDD  R26,Y+18
	CLR  R27
	LDD  R30,Y+15
	CALL SUBOPT_0x60
	LDD  R26,Y+17
	CLR  R27
	LDD  R30,Y+16
	CALL SUBOPT_0x69
	LDD  R30,Y+16
	CALL SUBOPT_0x6A
	BREQ _0x2020078
	LDD  R30,Y+8
	ANDI R30,LOW(0x80)
	BRNE _0x202007A
	LDD  R26,Y+13
	LDD  R27,Y+13+1
	LDI  R30,LOW(90)
	LDI  R31,HIGH(90)
	CALL SUBOPT_0x6B
	BRLT _0x202007C
	CALL SUBOPT_0x6C
	BRGE _0x202007D
_0x202007C:
	RJMP _0x202007B
_0x202007D:
_0x2020078:
	TST  R19
	BRMI _0x202007E
	CALL SUBOPT_0x6D
_0x202007E:
	LDD  R26,Y+7
	CPI  R26,LOW(0x2)
	BRLO _0x2020080
	__CPWRN 18,19,2
	BRGE _0x2020081
_0x2020080:
	RJMP _0x202007F
_0x2020081:
	CALL SUBOPT_0x6E
	BRNE _0x2020082
	ST   -Y,R16
	MOV  R26,R18
	SUBI R26,LOW(1)
	RCALL _glcd_setpixel
_0x2020082:
_0x202007F:
_0x202007B:
_0x202007A:
	LDD  R30,Y+8
	ANDI R30,LOW(0x88)
	CPI  R30,LOW(0x88)
	BREQ _0x2020084
	LDD  R30,Y+8
	ANDI R30,LOW(0x80)
	BRNE _0x2020086
	LDD  R26,Y+13
	LDD  R27,Y+13+1
	SUBI R26,LOW(-270)
	SBCI R27,HIGH(-270)
	CALL SUBOPT_0x6F
	BRLT _0x2020088
	LDD  R26,Y+13
	LDD  R27,Y+13+1
	SUBI R26,LOW(-270)
	SBCI R27,HIGH(-270)
	CALL SUBOPT_0x70
	BRGE _0x2020089
_0x2020088:
	RJMP _0x2020087
_0x2020089:
_0x2020084:
	CALL SUBOPT_0x71
	BRLO _0x202008A
	CALL SUBOPT_0x72
	BRNE _0x202008B
	ST   -Y,R16
	MOV  R26,R20
	SUBI R26,-LOW(1)
	RCALL _glcd_setpixel
_0x202008B:
_0x202008A:
_0x2020087:
_0x2020086:
	LDD  R26,Y+18
	CLR  R27
	LDD  R30,Y+15
	LDI  R31,0
	SUB  R26,R30
	SBC  R27,R31
	MOVW R16,R26
	TST  R17
	BRPL PC+2
	RJMP _0x202008C
	LDD  R30,Y+8
	ANDI R30,LOW(0x82)
	CPI  R30,LOW(0x82)
	BREQ _0x202008E
	LDD  R30,Y+8
	ANDI R30,LOW(0x80)
	BRNE _0x2020090
	LDD  R26,Y+13
	LDD  R27,Y+13+1
	SUBI R26,LOW(-90)
	SBCI R27,HIGH(-90)
	CALL SUBOPT_0x6F
	BRLT _0x2020092
	LDD  R26,Y+13
	LDD  R27,Y+13+1
	SUBI R26,LOW(-90)
	SBCI R27,HIGH(-90)
	CALL SUBOPT_0x70
	BRGE _0x2020093
_0x2020092:
	RJMP _0x2020091
_0x2020093:
_0x202008E:
	TST  R19
	BRMI _0x2020094
	CALL SUBOPT_0x6D
_0x2020094:
	LDD  R26,Y+7
	CPI  R26,LOW(0x2)
	BRLO _0x2020096
	__CPWRN 18,19,2
	BRGE _0x2020097
_0x2020096:
	RJMP _0x2020095
_0x2020097:
	CALL SUBOPT_0x6E
	BRNE _0x2020098
	ST   -Y,R16
	MOV  R26,R18
	SUBI R26,LOW(1)
	RCALL _glcd_setpixel
_0x2020098:
_0x2020095:
_0x2020091:
_0x2020090:
	LDD  R30,Y+8
	ANDI R30,LOW(0x84)
	CPI  R30,LOW(0x84)
	BREQ _0x202009A
	LDD  R30,Y+8
	ANDI R30,LOW(0x80)
	BRNE _0x202009C
	LDD  R26,Y+13
	LDD  R27,Y+13+1
	LDI  R30,LOW(270)
	LDI  R31,HIGH(270)
	CALL SUBOPT_0x6B
	BRLT _0x202009E
	CALL SUBOPT_0x6C
	BRGE _0x202009F
_0x202009E:
	RJMP _0x202009D
_0x202009F:
_0x202009A:
	CALL SUBOPT_0x71
	BRLO _0x20200A0
	CALL SUBOPT_0x72
	BRNE _0x20200A1
	ST   -Y,R16
	MOV  R26,R20
	SUBI R26,-LOW(1)
	RCALL _glcd_setpixel
_0x20200A1:
_0x20200A0:
_0x202009D:
_0x202009C:
_0x202008C:
	LDD  R26,Y+18
	CLR  R27
	LDD  R30,Y+16
	CALL SUBOPT_0x60
	LDD  R26,Y+17
	CLR  R27
	LDD  R30,Y+15
	CALL SUBOPT_0x69
	LDD  R30,Y+15
	CALL SUBOPT_0x6A
	BREQ _0x20200A3
	LDD  R30,Y+8
	ANDI R30,LOW(0x80)
	BRNE _0x20200A5
	LDD  R30,Y+11
	LDD  R31,Y+11+1
	LDD  R26,Y+13
	LDD  R27,Y+13+1
	CP   R26,R30
	CPC  R27,R31
	BRLT _0x20200A7
	LDD  R30,Y+9
	LDD  R31,Y+9+1
	CP   R30,R26
	CPC  R31,R27
	BRGE _0x20200A8
_0x20200A7:
	RJMP _0x20200A6
_0x20200A8:
_0x20200A3:
	TST  R19
	BRMI _0x20200A9
	CALL SUBOPT_0x6D
	LDD  R26,Y+7
	CPI  R26,LOW(0x2)
	BRLO _0x20200AA
	MOV  R30,R16
	SUBI R30,-LOW(2)
	CALL SUBOPT_0x73
	BRNE _0x20200AB
	MOV  R30,R16
	SUBI R30,-LOW(1)
	ST   -Y,R30
	MOV  R26,R18
	RCALL _glcd_setpixel
_0x20200AB:
_0x20200AA:
_0x20200A9:
_0x20200A6:
_0x20200A5:
	LDD  R30,Y+8
	ANDI R30,LOW(0x88)
	CPI  R30,LOW(0x88)
	BREQ _0x20200AD
	LDD  R30,Y+8
	ANDI R30,LOW(0x80)
	BRNE _0x20200AF
	LDD  R26,Y+13
	LDD  R27,Y+13+1
	LDI  R30,LOW(360)
	LDI  R31,HIGH(360)
	CALL SUBOPT_0x6B
	BRLT _0x20200B1
	CALL SUBOPT_0x6C
	BRGE _0x20200B2
_0x20200B1:
	RJMP _0x20200B0
_0x20200B2:
_0x20200AD:
	CALL SUBOPT_0x71
	BRLO _0x20200B3
	MOV  R30,R16
	SUBI R30,-LOW(2)
	CALL SUBOPT_0x74
	BRNE _0x20200B4
	MOV  R30,R16
	SUBI R30,-LOW(1)
	ST   -Y,R30
	MOV  R26,R20
	RCALL _glcd_setpixel
_0x20200B4:
_0x20200B3:
_0x20200B0:
_0x20200AF:
	LDD  R26,Y+18
	CLR  R27
	LDD  R30,Y+16
	LDI  R31,0
	SUB  R26,R30
	SBC  R27,R31
	MOVW R16,R26
	TST  R17
	BRPL PC+2
	RJMP _0x20200B5
	LDD  R30,Y+8
	ANDI R30,LOW(0x82)
	CPI  R30,LOW(0x82)
	BREQ _0x20200B7
	LDD  R30,Y+8
	ANDI R30,LOW(0x80)
	BRNE _0x20200B9
	LDD  R26,Y+13
	LDD  R27,Y+13+1
	LDI  R30,LOW(180)
	LDI  R31,HIGH(180)
	CALL SUBOPT_0x6B
	BRLT _0x20200BB
	CALL SUBOPT_0x6C
	BRGE _0x20200BC
_0x20200BB:
	RJMP _0x20200BA
_0x20200BC:
_0x20200B7:
	TST  R19
	BRMI _0x20200BD
	CALL SUBOPT_0x6D
	LDD  R26,Y+7
	CPI  R26,LOW(0x2)
	BRLO _0x20200BF
	__CPWRN 16,17,2
	BRGE _0x20200C0
_0x20200BF:
	RJMP _0x20200BE
_0x20200C0:
	MOV  R30,R16
	SUBI R30,LOW(2)
	CALL SUBOPT_0x73
	BRNE _0x20200C1
	MOV  R30,R16
	SUBI R30,LOW(1)
	ST   -Y,R30
	MOV  R26,R18
	RCALL _glcd_setpixel
_0x20200C1:
_0x20200BE:
_0x20200BD:
_0x20200BA:
_0x20200B9:
	LDD  R30,Y+8
	ANDI R30,LOW(0x84)
	CPI  R30,LOW(0x84)
	BREQ _0x20200C3
	LDD  R30,Y+8
	ANDI R30,LOW(0x80)
	BRNE _0x20200C5
	LDD  R26,Y+13
	LDD  R27,Y+13+1
	SUBI R26,LOW(-180)
	SBCI R27,HIGH(-180)
	CALL SUBOPT_0x6F
	BRLT _0x20200C7
	LDD  R26,Y+13
	LDD  R27,Y+13+1
	SUBI R26,LOW(-180)
	SBCI R27,HIGH(-180)
	CALL SUBOPT_0x70
	BRGE _0x20200C8
_0x20200C7:
	RJMP _0x20200C6
_0x20200C8:
_0x20200C3:
	CALL SUBOPT_0x71
	BRLO _0x20200CA
	__CPWRN 16,17,2
	BRGE _0x20200CB
_0x20200CA:
	RJMP _0x20200C9
_0x20200CB:
	MOV  R30,R16
	SUBI R30,LOW(2)
	CALL SUBOPT_0x74
	BRNE _0x20200CC
	MOV  R30,R16
	SUBI R30,LOW(1)
	ST   -Y,R30
	MOV  R26,R20
	RCALL _glcd_setpixel
_0x20200CC:
_0x20200C9:
_0x20200C6:
_0x20200C5:
_0x20200B5:
	CALL __LOADLOCR6
	ADIW R28,19
	RET
; .FEND
_glcd_line2_G101:
; .FSTART _glcd_line2_G101
	ST   -Y,R26
	CALL __SAVELOCR4
	LDD  R26,Y+7
	CLR  R27
	LDD  R30,Y+5
	LDI  R31,0
	SUB  R26,R30
	SBC  R27,R31
	RCALL _glcd_clipx
	MOV  R17,R30
	LDD  R26,Y+7
	CLR  R27
	LDD  R30,Y+5
	LDI  R31,0
	ADD  R26,R30
	ADC  R27,R31
	RCALL _glcd_clipx
	MOV  R16,R30
	LDD  R26,Y+6
	CLR  R27
	LDD  R30,Y+4
	LDI  R31,0
	SUB  R26,R30
	SBC  R27,R31
	RCALL _glcd_clipy
	MOV  R19,R30
	LDD  R26,Y+6
	CLR  R27
	LDD  R30,Y+4
	LDI  R31,0
	ADD  R26,R30
	ADC  R27,R31
	RCALL _glcd_clipy
	MOV  R18,R30
	ST   -Y,R17
	ST   -Y,R19
	ST   -Y,R16
	MOV  R26,R19
	RCALL _glcd_line
	ST   -Y,R17
	ST   -Y,R18
	ST   -Y,R16
	MOV  R26,R18
	RCALL _glcd_line
	CALL __LOADLOCR4
_0x2120009:
	ADIW R28,8
	RET
; .FEND
_glcd_quadrant_G101:
; .FSTART _glcd_quadrant_G101
	ST   -Y,R26
	CALL __SAVELOCR6
	LDD  R26,Y+9
	CPI  R26,LOW(0xF0)
	BRSH _0x20200CE
	LDD  R26,Y+8
	CPI  R26,LOW(0x80)
	BRLO _0x20200CD
_0x20200CE:
	RJMP _0x2120008
_0x20200CD:
	__GETBRMN 21,_glcd_state,8
_0x20200D0:
	MOV  R30,R21
	SUBI R21,1
	CPI  R30,0
	BRNE PC+2
	RJMP _0x20200D2
	LDD  R30,Y+7
	CPI  R30,0
	BRNE _0x20200D3
	RJMP _0x2120008
_0x20200D3:
	LDD  R30,Y+7
	SUBI R30,LOW(1)
	STD  Y+7,R30
	SUBI R30,-LOW(1)
	MOV  R16,R30
	LDI  R31,0
	LDI  R26,LOW(5)
	LDI  R27,HIGH(5)
	SUB  R26,R30
	SBC  R27,R31
	MOVW R30,R26
	CALL __LSLW2
	CALL __ASRW2
	MOVW R18,R30
	LDI  R17,LOW(0)
_0x20200D5:
	LDD  R26,Y+6
	CPI  R26,LOW(0x40)
	BRNE _0x20200D7
	CALL SUBOPT_0x75
	ST   -Y,R17
	MOV  R26,R16
	RCALL _glcd_line2_G101
	CALL SUBOPT_0x75
	ST   -Y,R16
	MOV  R26,R17
	RCALL _glcd_line2_G101
	RJMP _0x20200D8
_0x20200D7:
	CALL SUBOPT_0x75
	ST   -Y,R17
	ST   -Y,R16
	LDD  R30,Y+10
	LDI  R31,0
	ST   -Y,R31
	ST   -Y,R30
	LDI  R30,LOW(0)
	LDI  R31,HIGH(0)
	ST   -Y,R31
	ST   -Y,R30
	LDI  R26,LOW(0)
	LDI  R27,0
	RCALL _glcd_plot8_G101
_0x20200D8:
	SUBI R17,-1
	TST  R19
	BRPL _0x20200D9
	MOV  R30,R17
	LDI  R31,0
	RJMP _0x2020121
_0x20200D9:
	SUBI R16,1
	MOV  R26,R17
	CLR  R27
	MOV  R30,R16
	LDI  R31,0
	SUB  R26,R30
	SBC  R27,R31
	MOVW R30,R26
_0x2020121:
	LSL  R30
	ROL  R31
	ADIW R30,1
	__ADDWRR 18,19,30,31
	CP   R16,R17
	BRSH _0x20200D5
	RJMP _0x20200D0
_0x20200D2:
_0x2120008:
	CALL __LOADLOCR6
	ADIW R28,10
	RET
; .FEND
_glcd_fillcircle:
; .FSTART _glcd_fillcircle
	ST   -Y,R26
	CALL __SAVELOCR4
	LDS  R17,_glcd_state
	__GETB1MN _glcd_state,8
	MOV  R16,R30
	__GETB1MN _glcd_state,9
	MOV  R19,R30
	__GETB1MN _glcd_state,16
	STS  _glcd_state,R30
	CALL SUBOPT_0x54
	LDD  R30,Y+6
	ST   -Y,R30
	LDD  R30,Y+6
	ST   -Y,R30
	LDD  R30,Y+6
	ST   -Y,R30
	LDI  R26,LOW(64)
	RCALL _glcd_quadrant_G101
	STS  _glcd_state,R17
	__PUTBMRN _glcd_state,8,16
	__PUTBMRN _glcd_state,9,19
	CALL __LOADLOCR4
	ADIW R28,7
	RET
; .FEND
	#ifndef __SLEEP_DEFINED__
	#define __SLEEP_DEFINED__
	.EQU __se_bit=0x80
	.EQU __sm_mask=0x70
	.EQU __sm_powerdown=0x20
	.EQU __sm_powersave=0x30
	.EQU __sm_standby=0x60
	.EQU __sm_ext_standby=0x70
	.EQU __sm_adc_noise_red=0x10
	.SET power_ctrl_reg=mcucr
	#endif

	.CSEG
_put_buff_G103:
; .FSTART _put_buff_G103
	ST   -Y,R27
	ST   -Y,R26
	ST   -Y,R17
	ST   -Y,R16
	LDD  R26,Y+2
	LDD  R27,Y+2+1
	ADIW R26,2
	CALL __GETW1P
	SBIW R30,0
	BREQ _0x2060010
	LDD  R26,Y+2
	LDD  R27,Y+2+1
	ADIW R26,4
	CALL __GETW1P
	MOVW R16,R30
	SBIW R30,0
	BREQ _0x2060012
	__CPWRN 16,17,2
	BRLO _0x2060013
	MOVW R30,R16
	SBIW R30,1
	MOVW R16,R30
	__PUTW1SNS 2,4
_0x2060012:
	LDD  R26,Y+2
	LDD  R27,Y+2+1
	ADIW R26,2
	CALL SUBOPT_0x1C
	SBIW R30,1
	LDD  R26,Y+4
	STD  Z+0,R26
_0x2060013:
	LDD  R26,Y+2
	LDD  R27,Y+2+1
	CALL __GETW1P
	TST  R31
	BRMI _0x2060014
	CALL SUBOPT_0x1C
_0x2060014:
	RJMP _0x2060015
_0x2060010:
	LDD  R26,Y+2
	LDD  R27,Y+2+1
	LDI  R30,LOW(65535)
	LDI  R31,HIGH(65535)
	ST   X+,R30
	ST   X,R31
_0x2060015:
	LDD  R17,Y+1
	LDD  R16,Y+0
	JMP  _0x2120005
; .FEND
__ftoe_G103:
; .FSTART __ftoe_G103
	CALL SUBOPT_0x76
	LDI  R30,LOW(128)
	STD  Y+2,R30
	LDI  R30,LOW(63)
	STD  Y+3,R30
	CALL __SAVELOCR4
	LDD  R30,Y+14
	LDD  R31,Y+14+1
	CPI  R30,LOW(0xFFFF)
	LDI  R26,HIGH(0xFFFF)
	CPC  R31,R26
	BRNE _0x2060019
	LDD  R30,Y+8
	LDD  R31,Y+8+1
	ST   -Y,R31
	ST   -Y,R30
	__POINTW2FN _0x2060000,0
	CALL _strcpyf
	RJMP _0x2120007
_0x2060019:
	CPI  R30,LOW(0x7FFF)
	LDI  R26,HIGH(0x7FFF)
	CPC  R31,R26
	BRNE _0x2060018
	LDD  R30,Y+8
	LDD  R31,Y+8+1
	ST   -Y,R31
	ST   -Y,R30
	__POINTW2FN _0x2060000,1
	CALL _strcpyf
	RJMP _0x2120007
_0x2060018:
	LDD  R26,Y+11
	CPI  R26,LOW(0x7)
	BRLO _0x206001B
	LDI  R30,LOW(6)
	STD  Y+11,R30
_0x206001B:
	LDD  R17,Y+11
_0x206001C:
	MOV  R30,R17
	SUBI R17,1
	CPI  R30,0
	BREQ _0x206001E
	CALL SUBOPT_0x77
	RJMP _0x206001C
_0x206001E:
	__GETD1S 12
	CALL __CPD10
	BRNE _0x206001F
	LDI  R19,LOW(0)
	CALL SUBOPT_0x77
	RJMP _0x2060020
_0x206001F:
	LDD  R19,Y+11
	CALL SUBOPT_0x78
	BREQ PC+2
	BRCC PC+2
	RJMP _0x2060021
	CALL SUBOPT_0x77
_0x2060022:
	CALL SUBOPT_0x78
	BRLO _0x2060024
	CALL SUBOPT_0x79
	CALL SUBOPT_0x7A
	RJMP _0x2060022
_0x2060024:
	RJMP _0x2060025
_0x2060021:
_0x2060026:
	CALL SUBOPT_0x78
	BRSH _0x2060028
	CALL SUBOPT_0x79
	CALL SUBOPT_0x7B
	CALL SUBOPT_0x7C
	SUBI R19,LOW(1)
	RJMP _0x2060026
_0x2060028:
	CALL SUBOPT_0x77
_0x2060025:
	__GETD1S 12
	CALL SUBOPT_0x7D
	CALL SUBOPT_0x7C
	CALL SUBOPT_0x78
	BRLO _0x2060029
	CALL SUBOPT_0x79
	CALL SUBOPT_0x7A
_0x2060029:
_0x2060020:
	LDI  R17,LOW(0)
_0x206002A:
	LDD  R30,Y+11
	CP   R30,R17
	BRLO _0x206002C
	__GETD2S 4
	CALL SUBOPT_0x7E
	CALL SUBOPT_0x7D
	MOVW R26,R30
	MOVW R24,R22
	CALL _floor
	__PUTD1S 4
	CALL SUBOPT_0x79
	CALL __DIVF21
	CALL __CFD1U
	MOV  R16,R30
	CALL SUBOPT_0x7F
	CALL SUBOPT_0x80
	CLR  R31
	CLR  R22
	CLR  R23
	CALL __CDF1
	__GETD2S 4
	CALL __MULF12
	CALL SUBOPT_0x79
	CALL SUBOPT_0x81
	CALL SUBOPT_0x7C
	MOV  R30,R17
	SUBI R17,-1
	CPI  R30,0
	BRNE _0x206002A
	CALL SUBOPT_0x7F
	LDI  R30,LOW(46)
	ST   X,R30
	RJMP _0x206002A
_0x206002C:
	CALL SUBOPT_0x82
	SBIW R30,1
	LDD  R26,Y+10
	STD  Z+0,R26
	CPI  R19,0
	BRGE _0x206002E
	NEG  R19
	LDD  R26,Y+8
	LDD  R27,Y+8+1
	LDI  R30,LOW(45)
	RJMP _0x2060113
_0x206002E:
	LDD  R26,Y+8
	LDD  R27,Y+8+1
	LDI  R30,LOW(43)
_0x2060113:
	ST   X,R30
	CALL SUBOPT_0x82
	CALL SUBOPT_0x82
	SBIW R30,1
	MOVW R22,R30
	MOV  R26,R19
	LDI  R30,LOW(10)
	CALL __DIVB21
	SUBI R30,-LOW(48)
	MOVW R26,R22
	ST   X,R30
	CALL SUBOPT_0x82
	SBIW R30,1
	MOVW R22,R30
	MOV  R26,R19
	LDI  R30,LOW(10)
	CALL __MODB21
	SUBI R30,-LOW(48)
	MOVW R26,R22
	ST   X,R30
	LDD  R26,Y+8
	LDD  R27,Y+8+1
	LDI  R30,LOW(0)
	ST   X,R30
_0x2120007:
	CALL __LOADLOCR4
	ADIW R28,16
	RET
; .FEND
__print_G103:
; .FSTART __print_G103
	ST   -Y,R27
	ST   -Y,R26
	SBIW R28,63
	SBIW R28,17
	CALL __SAVELOCR6
	LDI  R17,0
	__GETW1SX 88
	STD  Y+8,R30
	STD  Y+8+1,R31
	__GETW1SX 86
	STD  Y+6,R30
	STD  Y+6+1,R31
	LDD  R26,Y+6
	LDD  R27,Y+6+1
	LDI  R30,LOW(0)
	LDI  R31,HIGH(0)
	ST   X+,R30
	ST   X,R31
_0x2060030:
	MOVW R26,R28
	SUBI R26,LOW(-(92))
	SBCI R27,HIGH(-(92))
	CALL SUBOPT_0x1C
	SBIW R30,1
	LPM  R30,Z
	MOV  R18,R30
	CPI  R30,0
	BRNE PC+2
	RJMP _0x2060032
	MOV  R30,R17
	CPI  R30,0
	BRNE _0x2060036
	CPI  R18,37
	BRNE _0x2060037
	LDI  R17,LOW(1)
	RJMP _0x2060038
_0x2060037:
	CALL SUBOPT_0x83
_0x2060038:
	RJMP _0x2060035
_0x2060036:
	CPI  R30,LOW(0x1)
	BRNE _0x2060039
	CPI  R18,37
	BRNE _0x206003A
	CALL SUBOPT_0x83
	RJMP _0x2060114
_0x206003A:
	LDI  R17,LOW(2)
	LDI  R30,LOW(0)
	STD  Y+21,R30
	LDI  R16,LOW(0)
	CPI  R18,45
	BRNE _0x206003B
	LDI  R16,LOW(1)
	RJMP _0x2060035
_0x206003B:
	CPI  R18,43
	BRNE _0x206003C
	LDI  R30,LOW(43)
	STD  Y+21,R30
	RJMP _0x2060035
_0x206003C:
	CPI  R18,32
	BRNE _0x206003D
	LDI  R30,LOW(32)
	STD  Y+21,R30
	RJMP _0x2060035
_0x206003D:
	RJMP _0x206003E
_0x2060039:
	CPI  R30,LOW(0x2)
	BRNE _0x206003F
_0x206003E:
	LDI  R21,LOW(0)
	LDI  R17,LOW(3)
	CPI  R18,48
	BRNE _0x2060040
	ORI  R16,LOW(128)
	RJMP _0x2060035
_0x2060040:
	RJMP _0x2060041
_0x206003F:
	CPI  R30,LOW(0x3)
	BRNE _0x2060042
_0x2060041:
	CPI  R18,48
	BRLO _0x2060044
	CPI  R18,58
	BRLO _0x2060045
_0x2060044:
	RJMP _0x2060043
_0x2060045:
	LDI  R26,LOW(10)
	MUL  R21,R26
	MOV  R21,R0
	MOV  R30,R18
	SUBI R30,LOW(48)
	ADD  R21,R30
	RJMP _0x2060035
_0x2060043:
	LDI  R20,LOW(0)
	CPI  R18,46
	BRNE _0x2060046
	LDI  R17,LOW(4)
	RJMP _0x2060035
_0x2060046:
	RJMP _0x2060047
_0x2060042:
	CPI  R30,LOW(0x4)
	BRNE _0x2060049
	CPI  R18,48
	BRLO _0x206004B
	CPI  R18,58
	BRLO _0x206004C
_0x206004B:
	RJMP _0x206004A
_0x206004C:
	ORI  R16,LOW(32)
	LDI  R26,LOW(10)
	MUL  R20,R26
	MOV  R20,R0
	MOV  R30,R18
	SUBI R30,LOW(48)
	ADD  R20,R30
	RJMP _0x2060035
_0x206004A:
_0x2060047:
	CPI  R18,108
	BRNE _0x206004D
	ORI  R16,LOW(2)
	LDI  R17,LOW(5)
	RJMP _0x2060035
_0x206004D:
	RJMP _0x206004E
_0x2060049:
	CPI  R30,LOW(0x5)
	BREQ PC+2
	RJMP _0x2060035
_0x206004E:
	MOV  R30,R18
	CPI  R30,LOW(0x63)
	BRNE _0x2060053
	CALL SUBOPT_0x84
	CALL SUBOPT_0x85
	CALL SUBOPT_0x84
	LDD  R26,Z+4
	ST   -Y,R26
	CALL SUBOPT_0x86
	RJMP _0x2060054
_0x2060053:
	CPI  R30,LOW(0x45)
	BREQ _0x2060057
	CPI  R30,LOW(0x65)
	BRNE _0x2060058
_0x2060057:
	RJMP _0x2060059
_0x2060058:
	CPI  R30,LOW(0x66)
	BREQ PC+2
	RJMP _0x206005A
_0x2060059:
	MOVW R30,R28
	ADIW R30,22
	STD  Y+14,R30
	STD  Y+14+1,R31
	CALL SUBOPT_0x87
	CALL __GETD1P
	CALL SUBOPT_0x88
	CALL SUBOPT_0x89
	LDD  R26,Y+13
	TST  R26
	BRMI _0x206005B
	LDD  R26,Y+21
	CPI  R26,LOW(0x2B)
	BREQ _0x206005D
	CPI  R26,LOW(0x20)
	BREQ _0x206005F
	RJMP _0x2060060
_0x206005B:
	CALL SUBOPT_0x8A
	CALL __ANEGF1
	CALL SUBOPT_0x88
	LDI  R30,LOW(45)
	STD  Y+21,R30
_0x206005D:
	SBRS R16,7
	RJMP _0x2060061
	LDD  R30,Y+21
	ST   -Y,R30
	CALL SUBOPT_0x86
	RJMP _0x2060062
_0x2060061:
_0x206005F:
	LDD  R30,Y+14
	LDD  R31,Y+14+1
	ADIW R30,1
	STD  Y+14,R30
	STD  Y+14+1,R31
	SBIW R30,1
	LDD  R26,Y+21
	STD  Z+0,R26
_0x2060062:
_0x2060060:
	SBRS R16,5
	LDI  R20,LOW(6)
	CPI  R18,102
	BRNE _0x2060064
	CALL SUBOPT_0x8A
	CALL __PUTPARD1
	ST   -Y,R20
	LDD  R26,Y+19
	LDD  R27,Y+19+1
	CALL _ftoa
	RJMP _0x2060065
_0x2060064:
	CALL SUBOPT_0x8A
	CALL __PUTPARD1
	ST   -Y,R20
	ST   -Y,R18
	LDD  R26,Y+20
	LDD  R27,Y+20+1
	RCALL __ftoe_G103
_0x2060065:
	MOVW R30,R28
	ADIW R30,22
	CALL SUBOPT_0x8B
	RJMP _0x2060066
_0x206005A:
	CPI  R30,LOW(0x73)
	BRNE _0x2060068
	CALL SUBOPT_0x89
	CALL SUBOPT_0x8C
	CALL SUBOPT_0x8B
	RJMP _0x2060069
_0x2060068:
	CPI  R30,LOW(0x70)
	BRNE _0x206006B
	CALL SUBOPT_0x89
	CALL SUBOPT_0x8C
	STD  Y+14,R30
	STD  Y+14+1,R31
	LDD  R26,Y+14
	LDD  R27,Y+14+1
	CALL _strlenf
	MOV  R17,R30
	ORI  R16,LOW(8)
_0x2060069:
	ANDI R16,LOW(127)
	CPI  R20,0
	BREQ _0x206006D
	CP   R20,R17
	BRLO _0x206006E
_0x206006D:
	RJMP _0x206006C
_0x206006E:
	MOV  R17,R20
_0x206006C:
_0x2060066:
	LDI  R20,LOW(0)
	LDI  R30,LOW(0)
	STD  Y+20,R30
	LDI  R19,LOW(0)
	RJMP _0x206006F
_0x206006B:
	CPI  R30,LOW(0x64)
	BREQ _0x2060072
	CPI  R30,LOW(0x69)
	BRNE _0x2060073
_0x2060072:
	ORI  R16,LOW(4)
	RJMP _0x2060074
_0x2060073:
	CPI  R30,LOW(0x75)
	BRNE _0x2060075
_0x2060074:
	LDI  R30,LOW(10)
	STD  Y+20,R30
	SBRS R16,1
	RJMP _0x2060076
	__GETD1N 0x3B9ACA00
	CALL SUBOPT_0x8D
	LDI  R17,LOW(10)
	RJMP _0x2060077
_0x2060076:
	__GETD1N 0x2710
	CALL SUBOPT_0x8D
	LDI  R17,LOW(5)
	RJMP _0x2060077
_0x2060075:
	CPI  R30,LOW(0x58)
	BRNE _0x2060079
	ORI  R16,LOW(8)
	RJMP _0x206007A
_0x2060079:
	CPI  R30,LOW(0x78)
	BREQ PC+2
	RJMP _0x20600B8
_0x206007A:
	LDI  R30,LOW(16)
	STD  Y+20,R30
	SBRS R16,1
	RJMP _0x206007C
	__GETD1N 0x10000000
	CALL SUBOPT_0x8D
	LDI  R17,LOW(8)
	RJMP _0x2060077
_0x206007C:
	__GETD1N 0x1000
	CALL SUBOPT_0x8D
	LDI  R17,LOW(4)
_0x2060077:
	CPI  R20,0
	BREQ _0x206007D
	ANDI R16,LOW(127)
	RJMP _0x206007E
_0x206007D:
	LDI  R20,LOW(1)
_0x206007E:
	SBRS R16,1
	RJMP _0x206007F
	CALL SUBOPT_0x89
	CALL SUBOPT_0x87
	ADIW R26,4
	CALL __GETD1P
	RJMP _0x2060115
_0x206007F:
	SBRS R16,2
	RJMP _0x2060081
	CALL SUBOPT_0x89
	CALL SUBOPT_0x8C
	CALL __CWD1
	RJMP _0x2060115
_0x2060081:
	CALL SUBOPT_0x89
	CALL SUBOPT_0x8C
	CLR  R22
	CLR  R23
_0x2060115:
	__PUTD1S 10
	SBRS R16,2
	RJMP _0x2060083
	LDD  R26,Y+13
	TST  R26
	BRPL _0x2060084
	CALL SUBOPT_0x8A
	CALL __ANEGD1
	CALL SUBOPT_0x88
	LDI  R30,LOW(45)
	STD  Y+21,R30
_0x2060084:
	LDD  R30,Y+21
	CPI  R30,0
	BREQ _0x2060085
	SUBI R17,-LOW(1)
	SUBI R20,-LOW(1)
	RJMP _0x2060086
_0x2060085:
	ANDI R16,LOW(251)
_0x2060086:
_0x2060083:
	MOV  R19,R20
_0x206006F:
	SBRC R16,0
	RJMP _0x2060087
_0x2060088:
	CP   R17,R21
	BRSH _0x206008B
	CP   R19,R21
	BRLO _0x206008C
_0x206008B:
	RJMP _0x206008A
_0x206008C:
	SBRS R16,7
	RJMP _0x206008D
	SBRS R16,2
	RJMP _0x206008E
	ANDI R16,LOW(251)
	LDD  R18,Y+21
	SUBI R17,LOW(1)
	RJMP _0x206008F
_0x206008E:
	LDI  R18,LOW(48)
_0x206008F:
	RJMP _0x2060090
_0x206008D:
	LDI  R18,LOW(32)
_0x2060090:
	CALL SUBOPT_0x83
	SUBI R21,LOW(1)
	RJMP _0x2060088
_0x206008A:
_0x2060087:
_0x2060091:
	CP   R17,R20
	BRSH _0x2060093
	ORI  R16,LOW(16)
	SBRS R16,2
	RJMP _0x2060094
	CALL SUBOPT_0x8E
	BREQ _0x2060095
	SUBI R21,LOW(1)
_0x2060095:
	SUBI R17,LOW(1)
	SUBI R20,LOW(1)
_0x2060094:
	LDI  R30,LOW(48)
	ST   -Y,R30
	CALL SUBOPT_0x86
	CPI  R21,0
	BREQ _0x2060096
	SUBI R21,LOW(1)
_0x2060096:
	SUBI R20,LOW(1)
	RJMP _0x2060091
_0x2060093:
	MOV  R19,R17
	LDD  R30,Y+20
	CPI  R30,0
	BRNE _0x2060097
_0x2060098:
	CPI  R19,0
	BREQ _0x206009A
	SBRS R16,3
	RJMP _0x206009B
	LDD  R30,Y+14
	LDD  R31,Y+14+1
	LPM  R18,Z+
	STD  Y+14,R30
	STD  Y+14+1,R31
	RJMP _0x206009C
_0x206009B:
	LDD  R26,Y+14
	LDD  R27,Y+14+1
	LD   R18,X+
	STD  Y+14,R26
	STD  Y+14+1,R27
_0x206009C:
	CALL SUBOPT_0x83
	CPI  R21,0
	BREQ _0x206009D
	SUBI R21,LOW(1)
_0x206009D:
	SUBI R19,LOW(1)
	RJMP _0x2060098
_0x206009A:
	RJMP _0x206009E
_0x2060097:
_0x20600A0:
	CALL SUBOPT_0x8F
	CALL __DIVD21U
	MOV  R18,R30
	CPI  R18,10
	BRLO _0x20600A2
	SBRS R16,3
	RJMP _0x20600A3
	SUBI R18,-LOW(55)
	RJMP _0x20600A4
_0x20600A3:
	SUBI R18,-LOW(87)
_0x20600A4:
	RJMP _0x20600A5
_0x20600A2:
	SUBI R18,-LOW(48)
_0x20600A5:
	SBRC R16,4
	RJMP _0x20600A7
	CPI  R18,49
	BRSH _0x20600A9
	__GETD2S 16
	__CPD2N 0x1
	BRNE _0x20600A8
_0x20600A9:
	RJMP _0x20600AB
_0x20600A8:
	CP   R20,R19
	BRSH _0x2060116
	CP   R21,R19
	BRLO _0x20600AE
	SBRS R16,0
	RJMP _0x20600AF
_0x20600AE:
	RJMP _0x20600AD
_0x20600AF:
	LDI  R18,LOW(32)
	SBRS R16,7
	RJMP _0x20600B0
_0x2060116:
	LDI  R18,LOW(48)
_0x20600AB:
	ORI  R16,LOW(16)
	SBRS R16,2
	RJMP _0x20600B1
	CALL SUBOPT_0x8E
	BREQ _0x20600B2
	SUBI R21,LOW(1)
_0x20600B2:
_0x20600B1:
_0x20600B0:
_0x20600A7:
	CALL SUBOPT_0x83
	CPI  R21,0
	BREQ _0x20600B3
	SUBI R21,LOW(1)
_0x20600B3:
_0x20600AD:
	SUBI R19,LOW(1)
	CALL SUBOPT_0x8F
	CALL __MODD21U
	CALL SUBOPT_0x88
	LDD  R30,Y+20
	__GETD2S 16
	CLR  R31
	CLR  R22
	CLR  R23
	CALL __DIVD21U
	CALL SUBOPT_0x8D
	__GETD1S 16
	CALL __CPD10
	BREQ _0x20600A1
	RJMP _0x20600A0
_0x20600A1:
_0x206009E:
	SBRS R16,0
	RJMP _0x20600B4
_0x20600B5:
	CPI  R21,0
	BREQ _0x20600B7
	SUBI R21,LOW(1)
	LDI  R30,LOW(32)
	ST   -Y,R30
	CALL SUBOPT_0x86
	RJMP _0x20600B5
_0x20600B7:
_0x20600B4:
_0x20600B8:
_0x2060054:
_0x2060114:
	LDI  R17,LOW(0)
_0x2060035:
	RJMP _0x2060030
_0x2060032:
	LDD  R26,Y+6
	LDD  R27,Y+6+1
	CALL __GETW1P
	CALL __LOADLOCR6
	ADIW R28,63
	ADIW R28,31
	RET
; .FEND
_sprintf:
; .FSTART _sprintf
	PUSH R15
	MOV  R15,R24
	SBIW R28,6
	CALL __SAVELOCR4
	CALL SUBOPT_0x90
	SBIW R30,0
	BRNE _0x20600B9
	LDI  R30,LOW(65535)
	LDI  R31,HIGH(65535)
	RJMP _0x2120006
_0x20600B9:
	MOVW R26,R28
	ADIW R26,6
	CALL __ADDW2R15
	MOVW R16,R26
	CALL SUBOPT_0x90
	STD  Y+6,R30
	STD  Y+6+1,R31
	LDI  R30,LOW(0)
	STD  Y+8,R30
	STD  Y+8+1,R30
	MOVW R26,R28
	ADIW R26,10
	CALL __ADDW2R15
	CALL __GETW1P
	ST   -Y,R31
	ST   -Y,R30
	ST   -Y,R17
	ST   -Y,R16
	LDI  R30,LOW(_put_buff_G103)
	LDI  R31,HIGH(_put_buff_G103)
	ST   -Y,R31
	ST   -Y,R30
	MOVW R26,R28
	ADIW R26,10
	RCALL __print_G103
	MOVW R18,R30
	LDD  R26,Y+6
	LDD  R27,Y+6+1
	LDI  R30,LOW(0)
	ST   X,R30
	MOVW R30,R18
_0x2120006:
	CALL __LOADLOCR4
	ADIW R28,10
	POP  R15
	RET
; .FEND

	.CSEG
_ftrunc:
; .FSTART _ftrunc
	CALL __PUTPARD2
   ldd  r23,y+3
   ldd  r22,y+2
   ldd  r31,y+1
   ld   r30,y
   bst  r23,7
   lsl  r23
   sbrc r22,7
   sbr  r23,1
   mov  r25,r23
   subi r25,0x7e
   breq __ftrunc0
   brcs __ftrunc0
   cpi  r25,24
   brsh __ftrunc1
   clr  r26
   clr  r27
   clr  r24
__ftrunc2:
   sec
   ror  r24
   ror  r27
   ror  r26
   dec  r25
   brne __ftrunc2
   and  r30,r26
   and  r31,r27
   and  r22,r24
   rjmp __ftrunc1
__ftrunc0:
   clt
   clr  r23
   clr  r30
   clr  r31
   clr  r22
__ftrunc1:
   cbr  r22,0x80
   lsr  r23
   brcc __ftrunc3
   sbr  r22,0x80
__ftrunc3:
   bld  r23,7
   ld   r26,y+
   ld   r27,y+
   ld   r24,y+
   ld   r25,y+
   cp   r30,r26
   cpc  r31,r27
   cpc  r22,r24
   cpc  r23,r25
   bst  r25,7
   ret
; .FEND
_floor:
; .FSTART _floor
	CALL SUBOPT_0x91
	CALL _ftrunc
	CALL __PUTD1S0
    brne __floor1
__floor0:
	CALL __GETD1S0
	JMP  _0x2120003
__floor1:
    brtc __floor0
	CALL __GETD1S0
	__GETD2N 0x3F800000
	CALL __SUBF12
	JMP  _0x2120003
; .FEND
_sin:
; .FSTART _sin
	CALL __PUTPARD2
	SBIW R28,4
	ST   -Y,R17
	LDI  R17,0
	CALL SUBOPT_0x92
	__GETD1N 0x3E22F983
	CALL __MULF12
	CALL SUBOPT_0x93
	RCALL _floor
	CALL SUBOPT_0x92
	CALL SUBOPT_0x81
	CALL SUBOPT_0x93
	__GETD1N 0x3F000000
	CALL __CMPF12
	BREQ PC+2
	BRCC PC+2
	RJMP _0x2080017
	CALL SUBOPT_0x94
	__GETD2N 0x3F000000
	CALL SUBOPT_0x95
	LDI  R17,LOW(1)
_0x2080017:
	CALL SUBOPT_0x92
	__GETD1N 0x3E800000
	CALL __CMPF12
	BREQ PC+2
	BRCC PC+2
	RJMP _0x2080018
	CALL SUBOPT_0x92
	__GETD1N 0x3F000000
	CALL SUBOPT_0x95
_0x2080018:
	CPI  R17,0
	BREQ _0x2080019
	CALL SUBOPT_0x94
	CALL __ANEGF1
	__PUTD1S 5
_0x2080019:
	CALL SUBOPT_0x94
	CALL SUBOPT_0x92
	CALL __MULF12
	__PUTD1S 1
	__GETD2N 0x4226C4B1
	CALL __MULF12
	MOVW R26,R30
	MOVW R24,R22
	__GETD1N 0x422DE51D
	CALL SUBOPT_0x81
	CALL SUBOPT_0x96
	__GETD2N 0x4104534C
	CALL __ADDF12
	CALL SUBOPT_0x92
	CALL __MULF12
	PUSH R23
	PUSH R22
	PUSH R31
	PUSH R30
	__GETD1S 1
	__GETD2N 0x3FDEED11
	CALL __ADDF12
	CALL SUBOPT_0x96
	__GETD2N 0x3FA87B5E
	CALL __ADDF12
	POP  R26
	POP  R27
	POP  R24
	POP  R25
	CALL __DIVF21
	LDD  R17,Y+0
	ADIW R28,9
	RET
; .FEND
_cos:
; .FSTART _cos
	CALL SUBOPT_0x91
	__GETD1N 0x3FC90FDB
	CALL __SUBF12
	MOVW R26,R30
	MOVW R24,R22
	RCALL _sin
	JMP  _0x2120003
; .FEND

	.CSEG
_memset:
; .FSTART _memset
	ST   -Y,R27
	ST   -Y,R26
    ldd  r27,y+1
    ld   r26,y
    adiw r26,0
    breq memset1
    ldd  r31,y+4
    ldd  r30,y+3
    ldd  r22,y+2
memset0:
    st   z+,r22
    sbiw r26,1
    brne memset0
memset1:
    ldd  r30,y+3
    ldd  r31,y+4
_0x2120005:
	ADIW R28,5
	RET
; .FEND
_strcpyf:
; .FSTART _strcpyf
	ST   -Y,R27
	ST   -Y,R26
    ld   r30,y+
    ld   r31,y+
    ld   r26,y+
    ld   r27,y+
    movw r24,r26
strcpyf0:
	lpm  r0,z+
    st   x+,r0
    tst  r0
    brne strcpyf0
    movw r30,r24
    ret
; .FEND
_strlen:
; .FSTART _strlen
	ST   -Y,R27
	ST   -Y,R26
    ld   r26,y+
    ld   r27,y+
    clr  r30
    clr  r31
strlen0:
    ld   r22,x+
    tst  r22
    breq strlen1
    adiw r30,1
    rjmp strlen0
strlen1:
    ret
; .FEND
_strlenf:
; .FSTART _strlenf
	ST   -Y,R27
	ST   -Y,R26
    clr  r26
    clr  r27
    ld   r30,y+
    ld   r31,y+
strlenf0:
	lpm  r0,z+
    tst  r0
    breq strlenf1
    adiw r26,1
    rjmp strlenf0
strlenf1:
    movw r30,r26
    ret
; .FEND

	.CSEG
_glcd_getmask:
; .FSTART _glcd_getmask
	ST   -Y,R26
	LD   R30,Y
	LDI  R31,0
	SUBI R30,LOW(-__glcd_mask*2)
	SBCI R31,HIGH(-__glcd_mask*2)
	LPM  R26,Z
	LDD  R30,Y+1
	CALL __LSLB12
	ADIW R28,2
	RET
; .FEND
_glcd_mappixcolor1bit:
; .FSTART _glcd_mappixcolor1bit
	ST   -Y,R26
	ST   -Y,R17
	LDD  R30,Y+1
	CPI  R30,LOW(0x7)
	BREQ _0x20C0007
	CPI  R30,LOW(0xA)
	BRNE _0x20C0008
_0x20C0007:
	LDS  R17,_glcd_state
	RJMP _0x20C0009
_0x20C0008:
	CPI  R30,LOW(0x9)
	BRNE _0x20C000B
	__GETBRMN 17,_glcd_state,1
	RJMP _0x20C0009
_0x20C000B:
	CPI  R30,LOW(0x8)
	BRNE _0x20C0005
	__GETBRMN 17,_glcd_state,16
_0x20C0009:
	__GETB1MN _glcd_state,1
	CPI  R30,0
	BREQ _0x20C000E
	CPI  R17,0
	BREQ _0x20C000F
	LDI  R30,LOW(255)
	LDD  R17,Y+0
	RJMP _0x2120004
_0x20C000F:
	LDD  R30,Y+2
	COM  R30
	LDD  R17,Y+0
	RJMP _0x2120004
_0x20C000E:
	CPI  R17,0
	BRNE _0x20C0011
	LDI  R30,LOW(0)
	LDD  R17,Y+0
	RJMP _0x2120004
_0x20C0011:
_0x20C0005:
	LDD  R30,Y+2
	LDD  R17,Y+0
	RJMP _0x2120004
; .FEND
_glcd_readmem:
; .FSTART _glcd_readmem
	ST   -Y,R27
	ST   -Y,R26
	LDD  R30,Y+2
	CPI  R30,LOW(0x1)
	BRNE _0x20C0015
	LD   R30,Y
	LDD  R31,Y+1
	LPM  R30,Z
	RJMP _0x2120004
_0x20C0015:
	CPI  R30,LOW(0x2)
	BRNE _0x20C0016
	LD   R26,Y
	LDD  R27,Y+1
	CALL __EEPROMRDB
	RJMP _0x2120004
_0x20C0016:
	CPI  R30,LOW(0x3)
	BRNE _0x20C0018
	LD   R26,Y
	LDD  R27,Y+1
	__CALL1MN _glcd_state,25
	RJMP _0x2120004
_0x20C0018:
	LD   R26,Y
	LDD  R27,Y+1
	LD   R30,X
_0x2120004:
	ADIW R28,3
	RET
; .FEND
_glcd_writemem:
; .FSTART _glcd_writemem
	ST   -Y,R26
	LDD  R30,Y+3
	CPI  R30,0
	BRNE _0x20C001C
	LD   R30,Y
	LDD  R26,Y+1
	LDD  R27,Y+1+1
	ST   X,R30
	RJMP _0x20C001B
_0x20C001C:
	CPI  R30,LOW(0x2)
	BRNE _0x20C001D
	LD   R30,Y
	LDD  R26,Y+1
	LDD  R27,Y+1+1
	CALL __EEPROMWRB
	RJMP _0x20C001B
_0x20C001D:
	CPI  R30,LOW(0x3)
	BRNE _0x20C001B
	LDD  R30,Y+1
	LDD  R31,Y+1+1
	ST   -Y,R31
	ST   -Y,R30
	LDD  R26,Y+2
	__CALL1MN _glcd_state,27
_0x20C001B:
_0x2120003:
	ADIW R28,4
	RET
; .FEND
_glcd_revbits:
; .FSTART _glcd_revbits
	ST   -Y,R26
    ld  r26,y+
    bst r26,0
    bld r30,7

    bst r26,1
    bld r30,6

    bst r26,2
    bld r30,5

    bst r26,3
    bld r30,4

    bst r26,4
    bld r30,3

    bst r26,5
    bld r30,2

    bst r26,6
    bld r30,1

    bst r26,7
    bld r30,0
    ret
; .FEND

	.CSEG

	.CSEG
_ftoa:
; .FSTART _ftoa
	RCALL SUBOPT_0x76
	LDI  R30,LOW(0)
	STD  Y+2,R30
	LDI  R30,LOW(63)
	STD  Y+3,R30
	ST   -Y,R17
	ST   -Y,R16
	LDD  R30,Y+11
	LDD  R31,Y+11+1
	CPI  R30,LOW(0xFFFF)
	LDI  R26,HIGH(0xFFFF)
	CPC  R31,R26
	BRNE _0x210000D
	RCALL SUBOPT_0x97
	__POINTW2FN _0x2100000,0
	CALL _strcpyf
	RJMP _0x2120002
_0x210000D:
	CPI  R30,LOW(0x7FFF)
	LDI  R26,HIGH(0x7FFF)
	CPC  R31,R26
	BRNE _0x210000C
	RCALL SUBOPT_0x97
	__POINTW2FN _0x2100000,1
	CALL _strcpyf
	RJMP _0x2120002
_0x210000C:
	LDD  R26,Y+12
	TST  R26
	BRPL _0x210000F
	__GETD1S 9
	CALL __ANEGF1
	RCALL SUBOPT_0x98
	RCALL SUBOPT_0x99
	LDI  R30,LOW(45)
	ST   X,R30
_0x210000F:
	LDD  R26,Y+8
	CPI  R26,LOW(0x7)
	BRLO _0x2100010
	LDI  R30,LOW(6)
	STD  Y+8,R30
_0x2100010:
	LDD  R17,Y+8
_0x2100011:
	MOV  R30,R17
	SUBI R17,1
	CPI  R30,0
	BREQ _0x2100013
	RCALL SUBOPT_0x9A
	RCALL SUBOPT_0x7E
	RCALL SUBOPT_0x9B
	RJMP _0x2100011
_0x2100013:
	RCALL SUBOPT_0x9C
	CALL __ADDF12
	RCALL SUBOPT_0x98
	LDI  R17,LOW(0)
	__GETD1N 0x3F800000
	RCALL SUBOPT_0x9B
_0x2100014:
	RCALL SUBOPT_0x9C
	CALL __CMPF12
	BRLO _0x2100016
	RCALL SUBOPT_0x9A
	RCALL SUBOPT_0x7B
	RCALL SUBOPT_0x9B
	SUBI R17,-LOW(1)
	CPI  R17,39
	BRLO _0x2100017
	RCALL SUBOPT_0x97
	__POINTW2FN _0x2100000,5
	CALL _strcpyf
	RJMP _0x2120002
_0x2100017:
	RJMP _0x2100014
_0x2100016:
	CPI  R17,0
	BRNE _0x2100018
	RCALL SUBOPT_0x99
	LDI  R30,LOW(48)
	ST   X,R30
	RJMP _0x2100019
_0x2100018:
_0x210001A:
	MOV  R30,R17
	SUBI R17,1
	CPI  R30,0
	BREQ _0x210001C
	RCALL SUBOPT_0x9A
	RCALL SUBOPT_0x7E
	RCALL SUBOPT_0x7D
	MOVW R26,R30
	MOVW R24,R22
	CALL _floor
	RCALL SUBOPT_0x9B
	RCALL SUBOPT_0x9C
	CALL __DIVF21
	CALL __CFD1U
	MOV  R16,R30
	RCALL SUBOPT_0x99
	RCALL SUBOPT_0x80
	LDI  R31,0
	RCALL SUBOPT_0x9A
	CALL __CWD1
	CALL __CDF1
	CALL __MULF12
	RCALL SUBOPT_0x9D
	RCALL SUBOPT_0x81
	RCALL SUBOPT_0x98
	RJMP _0x210001A
_0x210001C:
_0x2100019:
	LDD  R30,Y+8
	CPI  R30,0
	BREQ _0x2120001
	RCALL SUBOPT_0x99
	LDI  R30,LOW(46)
	ST   X,R30
_0x210001E:
	LDD  R30,Y+8
	SUBI R30,LOW(1)
	STD  Y+8,R30
	SUBI R30,-LOW(1)
	BREQ _0x2100020
	RCALL SUBOPT_0x9D
	RCALL SUBOPT_0x7B
	RCALL SUBOPT_0x98
	__GETD1S 9
	CALL __CFD1U
	MOV  R16,R30
	RCALL SUBOPT_0x99
	RCALL SUBOPT_0x80
	LDI  R31,0
	RCALL SUBOPT_0x9D
	CALL __CWD1
	CALL __CDF1
	RCALL SUBOPT_0x81
	RCALL SUBOPT_0x98
	RJMP _0x210001E
_0x2100020:
_0x2120001:
	LDD  R26,Y+6
	LDD  R27,Y+6+1
	LDI  R30,LOW(0)
	ST   X,R30
_0x2120002:
	LDD  R17,Y+1
	LDD  R16,Y+0
	ADIW R28,13
	RET
; .FEND

	.DSEG

	.CSEG

	.DSEG
_glcd_state:
	.BYTE 0x1D
_but0_counter:
	.BYTE 0x2
_but2_counter:
	.BYTE 0x2
_pointer:
	.BYTE 0x2
_day_pointer:
	.BYTE 0x2
_Rs:
	.BYTE 0x2
_Rm:
	.BYTE 0x2
_Rh:
	.BYTE 0x2
_sh_day:
	.BYTE 0x2
_sh_month:
	.BYTE 0x2
_sh_year:
	.BYTE 0x2
_ch_day:
	.BYTE 0x2
_ch_month:
	.BYTE 0x2
_ch_year:
	.BYTE 0x2
_am_pm:
	.BYTE 0x1
_temp_s:
	.BYTE 0xF
_xs:
	.BYTE 0x4
_ys:
	.BYTE 0x4
_xs0:
	.BYTE 0x4
_ys0:
	.BYTE 0x4
_Xm:
	.BYTE 0x4
_Ym:
	.BYTE 0x4
_Xh:
	.BYTE 0x4
_Yh:
	.BYTE 0x4
_ym0:
	.BYTE 0x4
_xm0:
	.BYTE 0x4
_yh0:
	.BYTE 0x4
_xh0:
	.BYTE 0x4
_x:
	.BYTE 0x2
_y:
	.BYTE 0x2
_sh:
	.BYTE 0x6
_m:
	.BYTE 0x6
_miladi_day:
	.BYTE 0xE
_miladi_month:
	.BYTE 0x18
__seed_G108:
	.BYTE 0x4

	.CSEG
;OPTIMIZER ADDED SUBROUTINE, CALLED 3 TIMES, CODE SIZE REDUCTION:1 WORDS
SUBOPT_0x0:
	ST   -Y,R27
	ST   -Y,R26
	LD   R26,Y
	LDD  R27,Y+1
	RET

;OPTIMIZER ADDED SUBROUTINE, CALLED 2 TIMES, CODE SIZE REDUCTION:1 WORDS
SUBOPT_0x1:
	__GETW2SX 72
	RET

;OPTIMIZER ADDED SUBROUTINE, CALLED 2 TIMES, CODE SIZE REDUCTION:2 WORDS
SUBOPT_0x2:
	__GETW1SX 76
	SBIW R30,1
	RET

;OPTIMIZER ADDED SUBROUTINE, CALLED 7 TIMES, CODE SIZE REDUCTION:9 WORDS
SUBOPT_0x3:
	ADD  R26,R30
	ADC  R27,R31
	CALL __GETW1P
	RET

;OPTIMIZER ADDED SUBROUTINE, CALLED 2 TIMES, CODE SIZE REDUCTION:2 WORDS
SUBOPT_0x4:
	ADD  R30,R26
	ADC  R31,R27
	__PUTW1SX 64
	RET

;OPTIMIZER ADDED SUBROUTINE, CALLED 15 TIMES, CODE SIZE REDUCTION:53 WORDS
SUBOPT_0x5:
	__GETW2SX 64
	RET

;OPTIMIZER ADDED SUBROUTINE, CALLED 2 TIMES, CODE SIZE REDUCTION:1 WORDS
SUBOPT_0x6:
	__GETW1SX 64
	RET

;OPTIMIZER ADDED SUBROUTINE, CALLED 2 TIMES, CODE SIZE REDUCTION:2 WORDS
SUBOPT_0x7:
	__PUTW1SX 64
	RJMP SUBOPT_0x5

;OPTIMIZER ADDED SUBROUTINE, CALLED 4 TIMES, CODE SIZE REDUCTION:3 WORDS
SUBOPT_0x8:
	RCALL SUBOPT_0x5
	LDI  R30,LOW(31)
	LDI  R31,HIGH(31)
	RET

;OPTIMIZER ADDED SUBROUTINE, CALLED 4 TIMES, CODE SIZE REDUCTION:3 WORDS
SUBOPT_0x9:
	LDI  R30,LOW(30)
	LDI  R31,HIGH(30)
	CALL __MODW21
	RET

;OPTIMIZER ADDED SUBROUTINE, CALLED 4 TIMES, CODE SIZE REDUCTION:9 WORDS
SUBOPT_0xA:
	RCALL SUBOPT_0x5
	LDI  R30,LOW(30)
	LDI  R31,HIGH(30)
	CALL __DIVW21
	RET

;OPTIMIZER ADDED SUBROUTINE, CALLED 3 TIMES, CODE SIZE REDUCTION:1 WORDS
SUBOPT_0xB:
	RCALL SUBOPT_0x5
	RJMP SUBOPT_0x9

;OPTIMIZER ADDED SUBROUTINE, CALLED 2 TIMES, CODE SIZE REDUCTION:3 WORDS
SUBOPT_0xC:
	LDD  R30,Y+30
	LDD  R31,Y+30+1
	MOVW R26,R28
	ADIW R26,6
	LSL  R30
	ROL  R31
	RJMP SUBOPT_0x3

;OPTIMIZER ADDED SUBROUTINE, CALLED 2 TIMES, CODE SIZE REDUCTION:4 WORDS
SUBOPT_0xD:
	CLR  R4
	CLR  R5
	MOVW R30,R8
	ADIW R30,1
	MOVW R8,R30
	LDI  R30,LOW(60)
	LDI  R31,HIGH(60)
	CP   R8,R30
	CPC  R9,R31
	RET

;OPTIMIZER ADDED SUBROUTINE, CALLED 8 TIMES, CODE SIZE REDUCTION:11 WORDS
SUBOPT_0xE:
	LDI  R30,LOW(12)
	LDI  R31,HIGH(12)
	CP   R6,R30
	CPC  R7,R31
	RET

;OPTIMIZER ADDED SUBROUTINE, CALLED 3 TIMES, CODE SIZE REDUCTION:1 WORDS
SUBOPT_0xF:
	LDI  R30,LOW(13)
	LDI  R31,HIGH(13)
	CP   R6,R30
	CPC  R7,R31
	RET

;OPTIMIZER ADDED SUBROUTINE, CALLED 2 TIMES, CODE SIZE REDUCTION:19 WORDS
SUBOPT_0x10:
	LDI  R30,LOW(97)
	STS  _am_pm,R30
	CLR  R6
	CLR  R7
	LDI  R26,LOW(_sh_day)
	LDI  R27,HIGH(_sh_day)
	LD   R30,X+
	LD   R31,X+
	ADIW R30,1
	ST   -X,R31
	ST   -X,R30
	LDI  R26,LOW(_day_pointer)
	LDI  R27,HIGH(_day_pointer)
	LD   R30,X+
	LD   R31,X+
	ADIW R30,1
	ST   -X,R31
	ST   -X,R30
	LDS  R26,_day_pointer
	LDS  R27,_day_pointer+1
	SBIW R26,7
	RET

;OPTIMIZER ADDED SUBROUTINE, CALLED 11 TIMES, CODE SIZE REDUCTION:27 WORDS
SUBOPT_0x11:
	LDI  R30,LOW(0)
	STS  _day_pointer,R30
	STS  _day_pointer+1,R30
	RET

;OPTIMIZER ADDED SUBROUTINE, CALLED 9 TIMES, CODE SIZE REDUCTION:37 WORDS
SUBOPT_0x12:
	LDS  R30,_sh_month
	LDS  R31,_sh_month+1
	CPI  R30,LOW(0x1)
	LDI  R26,HIGH(0x1)
	CPC  R31,R26
	RET

;OPTIMIZER ADDED SUBROUTINE, CALLED 27 TIMES, CODE SIZE REDUCTION:49 WORDS
SUBOPT_0x13:
	LDS  R26,_sh_day
	LDS  R27,_sh_day+1
	RET

;OPTIMIZER ADDED SUBROUTINE, CALLED 9 TIMES, CODE SIZE REDUCTION:125 WORDS
SUBOPT_0x14:
	LDI  R30,LOW(1)
	LDI  R31,HIGH(1)
	STS  _sh_day,R30
	STS  _sh_day+1,R31
	LDI  R26,LOW(_sh_month)
	LDI  R27,HIGH(_sh_month)
	LD   R30,X+
	LD   R31,X+
	ADIW R30,1
	ST   -X,R31
	ST   -X,R30
	LDS  R26,_sh_month
	LDS  R27,_sh_month+1
	SBIW R26,13
	RET

;OPTIMIZER ADDED SUBROUTINE, CALLED 19 TIMES, CODE SIZE REDUCTION:195 WORDS
SUBOPT_0x15:
	LDI  R30,LOW(1)
	LDI  R31,HIGH(1)
	STS  _sh_month,R30
	STS  _sh_month+1,R31
	LDI  R26,LOW(_sh_year)
	LDI  R27,HIGH(_sh_year)
	LD   R30,X+
	LD   R31,X+
	ADIW R30,1
	ST   -X,R31
	ST   -X,R30
	RET

;OPTIMIZER ADDED SUBROUTINE, CALLED 9 TIMES, CODE SIZE REDUCTION:45 WORDS
SUBOPT_0x16:
	LDI  R30,LOW(1)
	LDI  R31,HIGH(1)
	STS  _sh_day,R30
	STS  _sh_day+1,R31
	RJMP SUBOPT_0x15

;OPTIMIZER ADDED SUBROUTINE, CALLED 3 TIMES, CODE SIZE REDUCTION:1 WORDS
SUBOPT_0x17:
	LDI  R30,LOW(24)
	LDI  R31,HIGH(24)
	CP   R6,R30
	CPC  R7,R31
	RET

;OPTIMIZER ADDED SUBROUTINE, CALLED 3 TIMES, CODE SIZE REDUCTION:35 WORDS
SUBOPT_0x18:
	CLR  R6
	CLR  R7
	LDI  R26,LOW(_sh_day)
	LDI  R27,HIGH(_sh_day)
	LD   R30,X+
	LD   R31,X+
	ADIW R30,1
	ST   -X,R31
	ST   -X,R30
	LDI  R26,LOW(_day_pointer)
	LDI  R27,HIGH(_day_pointer)
	LD   R30,X+
	LD   R31,X+
	ADIW R30,1
	ST   -X,R31
	ST   -X,R30
	LDS  R26,_day_pointer
	LDS  R27,_day_pointer+1
	SBIW R26,7
	RET

;OPTIMIZER ADDED SUBROUTINE, CALLED 6 TIMES, CODE SIZE REDUCTION:332 WORDS
SUBOPT_0x19:
	LDS  R30,_sh_day
	LDS  R31,_sh_day+1
	__PUTW1MN _sh,4
	LDS  R30,_sh_month
	LDS  R31,_sh_month+1
	__PUTW1MN _sh,2
	LDS  R30,_sh_year
	LDS  R31,_sh_year+1
	STS  _sh,R30
	STS  _sh+1,R31
	__GETW1MN _sh,2
	ST   -Y,R31
	ST   -Y,R30
	__GETW1MN _sh,4
	ST   -Y,R31
	ST   -Y,R30
	LDS  R26,_sh
	LDS  R27,_sh+1
	CALL _ShamsiToMiladi
	LDI  R26,LOW(_m)
	LDI  R27,HIGH(_m)
	CALL __COPYMML
	__GETW1MN _m,4
	STS  _ch_day,R30
	STS  _ch_day+1,R31
	__GETW1MN _m,2
	STS  _ch_month,R30
	STS  _ch_month+1,R31
	LDS  R30,_m
	LDS  R31,_m+1
	STS  _ch_year,R30
	STS  _ch_year+1,R31
	RET

;OPTIMIZER ADDED SUBROUTINE, CALLED 4 TIMES, CODE SIZE REDUCTION:48 WORDS
SUBOPT_0x1A:
	LDI  R26,LOW(_sh_day)
	LDI  R27,HIGH(_sh_day)
	LD   R30,X+
	LD   R31,X+
	ADIW R30,1
	ST   -X,R31
	ST   -X,R30
	LDI  R26,LOW(_day_pointer)
	LDI  R27,HIGH(_day_pointer)
	LD   R30,X+
	LD   R31,X+
	ADIW R30,1
	ST   -X,R31
	ST   -X,R30
	LDS  R26,_day_pointer
	LDS  R27,_day_pointer+1
	SBIW R26,7
	RET

;OPTIMIZER ADDED SUBROUTINE, CALLED 9 TIMES, CODE SIZE REDUCTION:85 WORDS
SUBOPT_0x1B:
	LDI  R30,LOW(1)
	LDI  R31,HIGH(1)
	STS  _sh_day,R30
	STS  _sh_day+1,R31
	LDI  R26,LOW(_sh_month)
	LDI  R27,HIGH(_sh_month)
	LD   R30,X+
	LD   R31,X+
	ADIW R30,1
	ST   -X,R31
	ST   -X,R30
	RET

;OPTIMIZER ADDED SUBROUTINE, CALLED 22 TIMES, CODE SIZE REDUCTION:60 WORDS
SUBOPT_0x1C:
	LD   R30,X+
	LD   R31,X+
	ADIW R30,1
	ST   -X,R31
	ST   -X,R30
	RET

;OPTIMIZER ADDED SUBROUTINE, CALLED 3 TIMES, CODE SIZE REDUCTION:1 WORDS
SUBOPT_0x1D:
	LDI  R26,LOW(_ch_day)
	LDI  R27,HIGH(_ch_day)
	RJMP SUBOPT_0x1C

;OPTIMIZER ADDED SUBROUTINE, CALLED 9 TIMES, CODE SIZE REDUCTION:13 WORDS
SUBOPT_0x1E:
	LDS  R30,_ch_month
	LDS  R31,_ch_month+1
	RET

;OPTIMIZER ADDED SUBROUTINE, CALLED 3 TIMES, CODE SIZE REDUCTION:1 WORDS
SUBOPT_0x1F:
	LDS  R26,_ch_day
	LDS  R27,_ch_day+1
	RET

;OPTIMIZER ADDED SUBROUTINE, CALLED 3 TIMES, CODE SIZE REDUCTION:13 WORDS
SUBOPT_0x20:
	LDI  R30,LOW(1)
	LDI  R31,HIGH(1)
	STS  _ch_day,R30
	STS  _ch_day+1,R31
	LDI  R26,LOW(_ch_month)
	LDI  R27,HIGH(_ch_month)
	RJMP SUBOPT_0x1C

;OPTIMIZER ADDED SUBROUTINE, CALLED 3 TIMES, CODE SIZE REDUCTION:3 WORDS
SUBOPT_0x21:
	LDS  R26,_ch_month
	LDS  R27,_ch_month+1
	SBIW R26,13
	RET

;OPTIMIZER ADDED SUBROUTINE, CALLED 3 TIMES, CODE SIZE REDUCTION:13 WORDS
SUBOPT_0x22:
	LDI  R30,LOW(1)
	LDI  R31,HIGH(1)
	STS  _ch_month,R30
	STS  _ch_month+1,R31
	LDI  R26,LOW(_ch_year)
	LDI  R27,HIGH(_ch_year)
	RJMP SUBOPT_0x1C

;OPTIMIZER ADDED SUBROUTINE, CALLED 4 TIMES, CODE SIZE REDUCTION:192 WORDS
SUBOPT_0x23:
	LDS  R30,_ch_day
	LDS  R31,_ch_day+1
	__PUTW1MN _m,4
	RCALL SUBOPT_0x1E
	__PUTW1MN _m,2
	LDS  R30,_ch_year
	LDS  R31,_ch_year+1
	STS  _m,R30
	STS  _m+1,R31
	__GETW1MN _m,2
	ST   -Y,R31
	ST   -Y,R30
	__GETW1MN _m,4
	ST   -Y,R31
	ST   -Y,R30
	LDS  R26,_m
	LDS  R27,_m+1
	CALL _MiladiToShamsi
	LDI  R26,LOW(_sh)
	LDI  R27,HIGH(_sh)
	CALL __COPYMML
	__GETW1MN _sh,4
	STS  _sh_day,R30
	STS  _sh_day+1,R31
	__GETW1MN _sh,2
	STS  _sh_month,R30
	STS  _sh_month+1,R31
	LDS  R30,_sh
	LDS  R31,_sh+1
	STS  _sh_year,R30
	STS  _sh_year+1,R31
	RET

;OPTIMIZER ADDED SUBROUTINE, CALLED 2 TIMES, CODE SIZE REDUCTION:9 WORDS
SUBOPT_0x24:
	LDI  R30,LOW(10)
	ST   -Y,R30
	LDI  R30,LOW(30)
	ST   -Y,R30
	LDS  R30,_day_pointer
	LDS  R31,_day_pointer+1
	LDI  R26,LOW(_miladi_day)
	LDI  R27,HIGH(_miladi_day)
	LSL  R30
	ROL  R31
	RJMP SUBOPT_0x3

;OPTIMIZER ADDED SUBROUTINE, CALLED 2 TIMES, CODE SIZE REDUCTION:8 WORDS
SUBOPT_0x25:
	LDI  R30,LOW(10)
	ST   -Y,R30
	LDI  R30,LOW(20)
	ST   -Y,R30
	RCALL SUBOPT_0x1E
	SBIW R30,1
	LDI  R26,LOW(_miladi_month)
	LDI  R27,HIGH(_miladi_month)
	LSL  R30
	ROL  R31
	RJMP SUBOPT_0x3

;OPTIMIZER ADDED SUBROUTINE, CALLED 23 TIMES, CODE SIZE REDUCTION:41 WORDS
SUBOPT_0x26:
	LDI  R30,LOW(0)
	ST   -Y,R30
	LDI  R30,LOW(111)
	ST   -Y,R30
	RET

;OPTIMIZER ADDED SUBROUTINE, CALLED 8 TIMES, CODE SIZE REDUCTION:11 WORDS
SUBOPT_0x27:
	CALL _glcd_outtextxy
	LDI  R30,LOW(0)
	ST   -Y,R30
	RET

;OPTIMIZER ADDED SUBROUTINE, CALLED 4 TIMES, CODE SIZE REDUCTION:3 WORDS
SUBOPT_0x28:
	STS  _ch_day,R30
	STS  _ch_day+1,R31
	RET

;OPTIMIZER ADDED SUBROUTINE, CALLED 4 TIMES, CODE SIZE REDUCTION:3 WORDS
SUBOPT_0x29:
	STS  _ch_month,R30
	STS  _ch_month+1,R31
	RET

;OPTIMIZER ADDED SUBROUTINE, CALLED 4 TIMES, CODE SIZE REDUCTION:3 WORDS
SUBOPT_0x2A:
	STS  _ch_year,R30
	STS  _ch_year+1,R31
	RET

;OPTIMIZER ADDED SUBROUTINE, CALLED 4 TIMES, CODE SIZE REDUCTION:3 WORDS
SUBOPT_0x2B:
	LDS  R30,_sh_month
	LDS  R31,_sh_month+1
	RET

;OPTIMIZER ADDED SUBROUTINE, CALLED 3 TIMES, CODE SIZE REDUCTION:27 WORDS
SUBOPT_0x2C:
	ST   -Y,R31
	ST   -Y,R30
	LDS  R30,_sh_day
	LDS  R31,_sh_day+1
	ST   -Y,R31
	ST   -Y,R30
	LDS  R26,_sh_year
	LDS  R27,_sh_year+1
	CALL _ShamsiToMiladi
	LDI  R26,LOW(_m)
	LDI  R27,HIGH(_m)
	CALL __COPYMML
	RET

;OPTIMIZER ADDED SUBROUTINE, CALLED 4 TIMES, CODE SIZE REDUCTION:3 WORDS
SUBOPT_0x2D:
	__GETW1MN _m,2
	RET

;OPTIMIZER ADDED SUBROUTINE, CALLED 4 TIMES, CODE SIZE REDUCTION:3 WORDS
SUBOPT_0x2E:
	__GETW1MN _m,4
	RET

;OPTIMIZER ADDED SUBROUTINE, CALLED 5 TIMES, CODE SIZE REDUCTION:5 WORDS
SUBOPT_0x2F:
	LDI  R30,LOW(_temp_s)
	LDI  R31,HIGH(_temp_s)
	ST   -Y,R31
	ST   -Y,R30
	RET

;OPTIMIZER ADDED SUBROUTINE, CALLED 2 TIMES, CODE SIZE REDUCTION:14 WORDS
SUBOPT_0x30:
	MOVW R30,R6
	CALL __CWD1
	CALL __PUTPARD1
	MOVW R30,R8
	CALL __CWD1
	CALL __PUTPARD1
	MOVW R30,R4
	CALL __CWD1
	CALL __PUTPARD1
	LDI  R24,12
	CALL _sprintf
	ADIW R28,16
	RET

;OPTIMIZER ADDED SUBROUTINE, CALLED 5 TIMES, CODE SIZE REDUCTION:5 WORDS
SUBOPT_0x31:
	LDI  R30,LOW(12)
	LDI  R31,HIGH(12)
	CP   R30,R6
	CPC  R31,R7
	RET

;OPTIMIZER ADDED SUBROUTINE, CALLED 3 TIMES, CODE SIZE REDUCTION:7 WORDS
SUBOPT_0x32:
	ST   -Y,R30
	LDI  R30,LOW(120)
	ST   -Y,R30
	LDI  R26,LOW(_temp_s)
	LDI  R27,HIGH(_temp_s)
	JMP  _glcd_outtextxy

;OPTIMIZER ADDED SUBROUTINE, CALLED 3 TIMES, CODE SIZE REDUCTION:1 WORDS
SUBOPT_0x33:
	RCALL SUBOPT_0x28
	RJMP SUBOPT_0x2D

;OPTIMIZER ADDED SUBROUTINE, CALLED 3 TIMES, CODE SIZE REDUCTION:9 WORDS
SUBOPT_0x34:
	RCALL SUBOPT_0x29
	LDS  R30,_m
	LDS  R31,_m+1
	RJMP SUBOPT_0x2A

;OPTIMIZER ADDED SUBROUTINE, CALLED 6 TIMES, CODE SIZE REDUCTION:7 WORDS
SUBOPT_0x35:
	CALL __CWD1
	CALL __PUTPARD1
	RET

;OPTIMIZER ADDED SUBROUTINE, CALLED 6 TIMES, CODE SIZE REDUCTION:7 WORDS
SUBOPT_0x36:
	LDS  R26,_pointer
	LDS  R27,_pointer+1
	RET

;OPTIMIZER ADDED SUBROUTINE, CALLED 2 TIMES, CODE SIZE REDUCTION:21 WORDS
SUBOPT_0x37:
	LDI  R30,LOW(75)
	LDI  R31,HIGH(75)
	SUB  R30,R4
	SBC  R31,R5
	LSL  R30
	ROL  R31
	CALL __CWD1
	CALL __CDF1
	__GETD2N 0x40490E56
	CALL __MULF12
	MOVW R26,R30
	MOVW R24,R22
	__GETD1N 0x42700000
	CALL __DIVF21
	MOVW R26,R30
	MOVW R24,R22
	RET

;OPTIMIZER ADDED SUBROUTINE, CALLED 6 TIMES, CODE SIZE REDUCTION:17 WORDS
SUBOPT_0x38:
	CALL __CWD2
	CALL __CDF2
	CALL __MULF12
	RET

;OPTIMIZER ADDED SUBROUTINE, CALLED 2 TIMES, CODE SIZE REDUCTION:3 WORDS
SUBOPT_0x39:
	LDS  R30,_xs
	LDS  R31,_xs+1
	LDS  R22,_xs+2
	LDS  R23,_xs+3
	RET

;OPTIMIZER ADDED SUBROUTINE, CALLED 2 TIMES, CODE SIZE REDUCTION:3 WORDS
SUBOPT_0x3A:
	LDS  R26,_xs0
	LDS  R27,_xs0+1
	LDS  R24,_xs0+2
	LDS  R25,_xs0+3
	RET

;OPTIMIZER ADDED SUBROUTINE, CALLED 2 TIMES, CODE SIZE REDUCTION:3 WORDS
SUBOPT_0x3B:
	LDS  R30,_ys
	LDS  R31,_ys+1
	LDS  R22,_ys+2
	LDS  R23,_ys+3
	RET

;OPTIMIZER ADDED SUBROUTINE, CALLED 2 TIMES, CODE SIZE REDUCTION:3 WORDS
SUBOPT_0x3C:
	LDS  R26,_ys0
	LDS  R27,_ys0+1
	LDS  R24,_ys0+2
	LDS  R25,_ys0+3
	RET

;OPTIMIZER ADDED SUBROUTINE, CALLED 2 TIMES, CODE SIZE REDUCTION:11 WORDS
SUBOPT_0x3D:
	LDI  R30,LOW(1)
	__PUTB1MN _glcd_state,8
	LDI  R30,LOW(255)
	__PUTB1MN _glcd_state,9
	LDS  R30,_x
	ST   -Y,R30
	LDS  R30,_y
	ST   -Y,R30
	LDS  R30,_x
	LDS  R31,_x+1
	RET

;OPTIMIZER ADDED SUBROUTINE, CALLED 12 TIMES, CODE SIZE REDUCTION:63 WORDS
SUBOPT_0x3E:
	CALL __CWD1
	CALL __CDF1
	CALL __ADDF12
	CALL __CFD1U
	RET

;OPTIMIZER ADDED SUBROUTINE, CALLED 6 TIMES, CODE SIZE REDUCTION:12 WORDS
SUBOPT_0x3F:
	ST   -Y,R30
	LDS  R30,_y
	LDS  R31,_y+1
	RET

;OPTIMIZER ADDED SUBROUTINE, CALLED 2 TIMES, CODE SIZE REDUCTION:45 WORDS
SUBOPT_0x40:
	MOVW R30,R4
	CALL __CWD1
	CALL __CDF1
	MOVW R26,R30
	MOVW R24,R22
	__GETD1N 0x42700000
	CALL __DIVF21
	MOVW R26,R8
	CALL __CWD2
	CALL __CDF2
	CALL __ADDF12
	__GETD2N 0x42960000
	CALL __SWAPD12
	CALL __SUBF12
	__GETD2N 0x40000000
	CALL __MULF12
	__GETD2N 0x40490E56
	CALL __MULF12
	MOVW R26,R30
	MOVW R24,R22
	__GETD1N 0x42700000
	CALL __DIVF21
	MOVW R26,R30
	MOVW R24,R22
	RET

;OPTIMIZER ADDED SUBROUTINE, CALLED 2 TIMES, CODE SIZE REDUCTION:3 WORDS
SUBOPT_0x41:
	LDS  R30,_Xm
	LDS  R31,_Xm+1
	LDS  R22,_Xm+2
	LDS  R23,_Xm+3
	RET

;OPTIMIZER ADDED SUBROUTINE, CALLED 2 TIMES, CODE SIZE REDUCTION:3 WORDS
SUBOPT_0x42:
	LDS  R26,_xm0
	LDS  R27,_xm0+1
	LDS  R24,_xm0+2
	LDS  R25,_xm0+3
	RET

;OPTIMIZER ADDED SUBROUTINE, CALLED 2 TIMES, CODE SIZE REDUCTION:3 WORDS
SUBOPT_0x43:
	LDS  R30,_Ym
	LDS  R31,_Ym+1
	LDS  R22,_Ym+2
	LDS  R23,_Ym+3
	RET

;OPTIMIZER ADDED SUBROUTINE, CALLED 2 TIMES, CODE SIZE REDUCTION:3 WORDS
SUBOPT_0x44:
	LDS  R26,_ym0
	LDS  R27,_ym0+1
	LDS  R24,_ym0+2
	LDS  R25,_ym0+3
	RET

;OPTIMIZER ADDED SUBROUTINE, CALLED 2 TIMES, CODE SIZE REDUCTION:11 WORDS
SUBOPT_0x45:
	LDI  R30,LOW(2)
	__PUTB1MN _glcd_state,8
	LDI  R30,LOW(255)
	__PUTB1MN _glcd_state,9
	LDS  R30,_x
	ST   -Y,R30
	LDS  R30,_y
	ST   -Y,R30
	LDS  R30,_x
	LDS  R31,_x+1
	RET

;OPTIMIZER ADDED SUBROUTINE, CALLED 2 TIMES, CODE SIZE REDUCTION:45 WORDS
SUBOPT_0x46:
	MOVW R30,R8
	CALL __CWD1
	CALL __CDF1
	MOVW R26,R30
	MOVW R24,R22
	__GETD1N 0x42700000
	CALL __DIVF21
	MOVW R26,R10
	CALL __CWD2
	CALL __CDF2
	CALL __ADDF12
	__GETD2N 0x40400000
	CALL __SWAPD12
	CALL __SUBF12
	__GETD2N 0x40000000
	CALL __MULF12
	__GETD2N 0x40490E56
	CALL __MULF12
	MOVW R26,R30
	MOVW R24,R22
	__GETD1N 0x41400000
	CALL __DIVF21
	MOVW R26,R30
	MOVW R24,R22
	RET

;OPTIMIZER ADDED SUBROUTINE, CALLED 2 TIMES, CODE SIZE REDUCTION:3 WORDS
SUBOPT_0x47:
	LDS  R30,_Xh
	LDS  R31,_Xh+1
	LDS  R22,_Xh+2
	LDS  R23,_Xh+3
	RET

;OPTIMIZER ADDED SUBROUTINE, CALLED 2 TIMES, CODE SIZE REDUCTION:3 WORDS
SUBOPT_0x48:
	LDS  R26,_xh0
	LDS  R27,_xh0+1
	LDS  R24,_xh0+2
	LDS  R25,_xh0+3
	RET

;OPTIMIZER ADDED SUBROUTINE, CALLED 2 TIMES, CODE SIZE REDUCTION:3 WORDS
SUBOPT_0x49:
	LDS  R30,_Yh
	LDS  R31,_Yh+1
	LDS  R22,_Yh+2
	LDS  R23,_Yh+3
	RET

;OPTIMIZER ADDED SUBROUTINE, CALLED 2 TIMES, CODE SIZE REDUCTION:3 WORDS
SUBOPT_0x4A:
	LDS  R26,_yh0
	LDS  R27,_yh0+1
	LDS  R24,_yh0+2
	LDS  R25,_yh0+3
	RET

;OPTIMIZER ADDED SUBROUTINE, CALLED 2 TIMES, CODE SIZE REDUCTION:11 WORDS
SUBOPT_0x4B:
	LDI  R30,LOW(3)
	__PUTB1MN _glcd_state,8
	LDI  R30,LOW(255)
	__PUTB1MN _glcd_state,9
	LDS  R30,_x
	ST   -Y,R30
	LDS  R30,_y
	ST   -Y,R30
	LDS  R30,_x
	LDS  R31,_x+1
	RET

;OPTIMIZER ADDED SUBROUTINE, CALLED 3 TIMES, CODE SIZE REDUCTION:1 WORDS
SUBOPT_0x4C:
	LDI  R30,LOW(0)
	ST   -Y,R30
	ST   -Y,R30
	RET

;OPTIMIZER ADDED SUBROUTINE, CALLED 5 TIMES, CODE SIZE REDUCTION:9 WORDS
SUBOPT_0x4D:
	ST   -Y,R31
	ST   -Y,R30
	LDI  R26,LOW(0)
	JMP  _glcd_putimagef

;OPTIMIZER ADDED SUBROUTINE, CALLED 3 TIMES, CODE SIZE REDUCTION:3 WORDS
SUBOPT_0x4E:
	LDI  R30,LOW(0)
	STS  _pointer,R30
	STS  _pointer+1,R30
	RET

;OPTIMIZER ADDED SUBROUTINE, CALLED 2 TIMES, CODE SIZE REDUCTION:1 WORDS
SUBOPT_0x4F:
	LDI  R30,LOW(20)
	OUT  0x39,R30
	CALL _reset_counters
	LDI  R30,LOW(0)
	OUT  0x24,R30
	RET

;OPTIMIZER ADDED SUBROUTINE, CALLED 2 TIMES, CODE SIZE REDUCTION:1 WORDS
SUBOPT_0x50:
	CLT
	BLD  R2,4
	LDI  R30,LOW(20)
	OUT  0x39,R30
	LDI  R30,LOW(0)
	OUT  0x24,R30
	RET

;OPTIMIZER ADDED SUBROUTINE, CALLED 2 TIMES, CODE SIZE REDUCTION:9 WORDS
SUBOPT_0x51:
	CLT
	BLD  R2,3
	SET
	BLD  R2,1
	CALL _glcd_clear
	LDI  R30,LOW(69)
	ST   -Y,R30
	LDI  R30,LOW(0)
	ST   -Y,R30
	LDI  R30,LOW(_clock_0*2)
	LDI  R31,HIGH(_clock_0*2)
	RJMP SUBOPT_0x4D

;OPTIMIZER ADDED SUBROUTINE, CALLED 3 TIMES, CODE SIZE REDUCTION:17 WORDS
SUBOPT_0x52:
	LDI  R30,LOW(0)
	__PUTB1MN _glcd_state,16
	LDS  R30,_x
	ST   -Y,R30
	LDS  R30,_y
	ST   -Y,R30
	LDI  R26,LOW(32)
	JMP  _glcd_fillcircle

;OPTIMIZER ADDED SUBROUTINE, CALLED 4 TIMES, CODE SIZE REDUCTION:6 WORDS
SUBOPT_0x53:
	CALL _t6963_wrdata
	LDI  R26,LOW(0)
	JMP  _t6963_wrdata

;OPTIMIZER ADDED SUBROUTINE, CALLED 2 TIMES, CODE SIZE REDUCTION:1 WORDS
SUBOPT_0x54:
	LDI  R30,LOW(1)
	__PUTB1MN _glcd_state,8
	LDI  R30,LOW(255)
	__PUTB1MN _glcd_state,9
	RET

;OPTIMIZER ADDED SUBROUTINE, CALLED 2 TIMES, CODE SIZE REDUCTION:3 WORDS
SUBOPT_0x55:
	ANDI R30,LOW(0x7)
	LDI  R26,LOW(7)
	CALL __SWAPB12
	SUB  R30,R26
	LDI  R26,LOW(1)
	CALL __LSLB12
	RET

;OPTIMIZER ADDED SUBROUTINE, CALLED 4 TIMES, CODE SIZE REDUCTION:6 WORDS
SUBOPT_0x56:
	CALL _t6963_rdbyte_G100
	MOV  R26,R30
	JMP  _glcd_revbits

;OPTIMIZER ADDED SUBROUTINE, CALLED 3 TIMES, CODE SIZE REDUCTION:1 WORDS
SUBOPT_0x57:
	ADD  R30,R26
	ADC  R31,R27
	STD  Y+6,R30
	STD  Y+6+1,R31
	RET

;OPTIMIZER ADDED SUBROUTINE, CALLED 2 TIMES, CODE SIZE REDUCTION:8 WORDS
SUBOPT_0x58:
	LDD  R30,Y+16
	ST   -Y,R30
	LDD  R30,Y+7
	LDD  R31,Y+7+1
	ADIW R30,1
	STD  Y+7,R30
	STD  Y+7+1,R31
	SBIW R30,1
	ST   -Y,R31
	ST   -Y,R30
	LDI  R26,LOW(0)
	JMP  _glcd_writemem

;OPTIMIZER ADDED SUBROUTINE, CALLED 2 TIMES, CODE SIZE REDUCTION:3 WORDS
SUBOPT_0x59:
	LDD  R30,Y+16
	ST   -Y,R30
	LDD  R26,Y+7
	LDD  R27,Y+7+1
	CLR  R24
	CLR  R25
	JMP  _glcd_readmem

;OPTIMIZER ADDED SUBROUTINE, CALLED 4 TIMES, CODE SIZE REDUCTION:3 WORDS
SUBOPT_0x5A:
	LDD  R30,Y+16
	ST   -Y,R30
	LDD  R30,Y+7
	LDD  R31,Y+7+1
	RET

;OPTIMIZER ADDED SUBROUTINE, CALLED 2 TIMES, CODE SIZE REDUCTION:1 WORDS
SUBOPT_0x5B:
	ST   -Y,R30
	LDD  R30,Y+14
	ST   -Y,R30
	LDD  R26,Y+17
	JMP  _t6963_wrmasked_G100

;OPTIMIZER ADDED SUBROUTINE, CALLED 2 TIMES, CODE SIZE REDUCTION:1 WORDS
SUBOPT_0x5C:
	CALL __SAVELOCR6
	__GETW1MN _glcd_state,4
	RET

;OPTIMIZER ADDED SUBROUTINE, CALLED 3 TIMES, CODE SIZE REDUCTION:1 WORDS
SUBOPT_0x5D:
	MOVW R30,R16
	__ADDWRN 16,17,1
	LPM  R0,Z
	RET

;OPTIMIZER ADDED SUBROUTINE, CALLED 4 TIMES, CODE SIZE REDUCTION:9 WORDS
SUBOPT_0x5E:
	__GETW1MN _glcd_state,4
	ADIW R30,1
	LPM  R30,Z
	RET

;OPTIMIZER ADDED SUBROUTINE, CALLED 3 TIMES, CODE SIZE REDUCTION:1 WORDS
SUBOPT_0x5F:
	CALL _glcd_clipy
	__PUTB1MN _glcd_state,3
	RET

;OPTIMIZER ADDED SUBROUTINE, CALLED 3 TIMES, CODE SIZE REDUCTION:1 WORDS
SUBOPT_0x60:
	LDI  R31,0
	ADD  R30,R26
	ADC  R31,R27
	MOVW R16,R30
	RET

;OPTIMIZER ADDED SUBROUTINE, CALLED 2 TIMES, CODE SIZE REDUCTION:1 WORDS
SUBOPT_0x61:
	__GETB1MN _glcd_state,2
	ST   -Y,R30
	__GETB1MN _glcd_state,3
	ST   -Y,R30
	RET

;OPTIMIZER ADDED SUBROUTINE, CALLED 3 TIMES, CODE SIZE REDUCTION:1 WORDS
SUBOPT_0x62:
	CALL _glcd_block
	__GETB1MN _glcd_state,2
	RET

;OPTIMIZER ADDED SUBROUTINE, CALLED 3 TIMES, CODE SIZE REDUCTION:9 WORDS
SUBOPT_0x63:
	ST   -Y,R30
	LDI  R30,LOW(0)
	ST   -Y,R30
	LDI  R30,LOW(0)
	LDI  R31,HIGH(0)
	ST   -Y,R31
	ST   -Y,R30
	LDI  R26,LOW(9)
	RET

;OPTIMIZER ADDED SUBROUTINE, CALLED 3 TIMES, CODE SIZE REDUCTION:1 WORDS
SUBOPT_0x64:
	STD  Y+5,R30
	STD  Y+5+1,R31
	RET

;OPTIMIZER ADDED SUBROUTINE, CALLED 3 TIMES, CODE SIZE REDUCTION:7 WORDS
SUBOPT_0x65:
	LDD  R26,Y+6
	SUBI R26,-LOW(1)
	STD  Y+6,R26
	SUBI R26,LOW(1)
	__GETB1MN _glcd_state,8
	CP   R26,R30
	RET

;OPTIMIZER ADDED SUBROUTINE, CALLED 3 TIMES, CODE SIZE REDUCTION:1 WORDS
SUBOPT_0x66:
	ST   -Y,R19
	LDD  R26,Y+10
	JMP  _glcd_putpixelm_G101

;OPTIMIZER ADDED SUBROUTINE, CALLED 2 TIMES, CODE SIZE REDUCTION:1 WORDS
SUBOPT_0x67:
	LDD  R26,Y+9
	LDD  R27,Y+9+1
	ADD  R30,R26
	ADC  R31,R27
	STD  Y+9,R30
	STD  Y+9+1,R31
	RET

;OPTIMIZER ADDED SUBROUTINE, CALLED 2 TIMES, CODE SIZE REDUCTION:1 WORDS
SUBOPT_0x68:
	LDD  R30,Y+9
	LDD  R31,Y+9+1
	SUB  R30,R26
	SBC  R31,R27
	STD  Y+9,R30
	STD  Y+9+1,R31
	RET

;OPTIMIZER ADDED SUBROUTINE, CALLED 2 TIMES, CODE SIZE REDUCTION:1 WORDS
SUBOPT_0x69:
	LDI  R31,0
	SUB  R26,R30
	SBC  R27,R31
	MOVW R18,R26
	LDD  R26,Y+17
	CLR  R27
	RET

;OPTIMIZER ADDED SUBROUTINE, CALLED 2 TIMES, CODE SIZE REDUCTION:2 WORDS
SUBOPT_0x6A:
	LDI  R31,0
	ADD  R30,R26
	ADC  R31,R27
	MOVW R20,R30
	LDD  R30,Y+8
	ANDI R30,LOW(0x81)
	CPI  R30,LOW(0x81)
	RET

;OPTIMIZER ADDED SUBROUTINE, CALLED 4 TIMES, CODE SIZE REDUCTION:15 WORDS
SUBOPT_0x6B:
	SUB  R30,R26
	SBC  R31,R27
	MOVW R0,R30
	MOVW R26,R30
	LDD  R30,Y+11
	LDD  R31,Y+11+1
	CP   R26,R30
	CPC  R27,R31
	RET

;OPTIMIZER ADDED SUBROUTINE, CALLED 4 TIMES, CODE SIZE REDUCTION:3 WORDS
SUBOPT_0x6C:
	LDD  R30,Y+9
	LDD  R31,Y+9+1
	CP   R30,R0
	CPC  R31,R1
	RET

;OPTIMIZER ADDED SUBROUTINE, CALLED 4 TIMES, CODE SIZE REDUCTION:3 WORDS
SUBOPT_0x6D:
	ST   -Y,R16
	MOV  R26,R18
	JMP  _glcd_setpixel

;OPTIMIZER ADDED SUBROUTINE, CALLED 2 TIMES, CODE SIZE REDUCTION:3 WORDS
SUBOPT_0x6E:
	ST   -Y,R16
	MOV  R26,R18
	SUBI R26,LOW(2)
	CALL _glcd_getpixel
	MOV  R26,R30
	LDD  R30,Y+6
	CP   R30,R26
	RET

;OPTIMIZER ADDED SUBROUTINE, CALLED 3 TIMES, CODE SIZE REDUCTION:1 WORDS
SUBOPT_0x6F:
	LDD  R30,Y+11
	LDD  R31,Y+11+1
	CP   R26,R30
	CPC  R27,R31
	RET

;OPTIMIZER ADDED SUBROUTINE, CALLED 3 TIMES, CODE SIZE REDUCTION:1 WORDS
SUBOPT_0x70:
	LDD  R30,Y+9
	LDD  R31,Y+9+1
	CP   R30,R26
	CPC  R31,R27
	RET

;OPTIMIZER ADDED SUBROUTINE, CALLED 4 TIMES, CODE SIZE REDUCTION:9 WORDS
SUBOPT_0x71:
	ST   -Y,R16
	MOV  R26,R20
	CALL _glcd_setpixel
	LDD  R26,Y+7
	CPI  R26,LOW(0x2)
	RET

;OPTIMIZER ADDED SUBROUTINE, CALLED 2 TIMES, CODE SIZE REDUCTION:3 WORDS
SUBOPT_0x72:
	ST   -Y,R16
	MOV  R26,R20
	SUBI R26,-LOW(2)
	CALL _glcd_getpixel
	MOV  R26,R30
	LDD  R30,Y+6
	CP   R30,R26
	RET

;OPTIMIZER ADDED SUBROUTINE, CALLED 2 TIMES, CODE SIZE REDUCTION:2 WORDS
SUBOPT_0x73:
	ST   -Y,R30
	MOV  R26,R18
	CALL _glcd_getpixel
	MOV  R26,R30
	LDD  R30,Y+6
	CP   R30,R26
	RET

;OPTIMIZER ADDED SUBROUTINE, CALLED 2 TIMES, CODE SIZE REDUCTION:2 WORDS
SUBOPT_0x74:
	ST   -Y,R30
	MOV  R26,R20
	CALL _glcd_getpixel
	MOV  R26,R30
	LDD  R30,Y+6
	CP   R30,R26
	RET

;OPTIMIZER ADDED SUBROUTINE, CALLED 3 TIMES, CODE SIZE REDUCTION:1 WORDS
SUBOPT_0x75:
	LDD  R30,Y+9
	ST   -Y,R30
	LDD  R30,Y+9
	ST   -Y,R30
	RET

;OPTIMIZER ADDED SUBROUTINE, CALLED 2 TIMES, CODE SIZE REDUCTION:2 WORDS
SUBOPT_0x76:
	ST   -Y,R27
	ST   -Y,R26
	SBIW R28,4
	LDI  R30,LOW(0)
	ST   Y,R30
	STD  Y+1,R30
	RET

;OPTIMIZER ADDED SUBROUTINE, CALLED 4 TIMES, CODE SIZE REDUCTION:33 WORDS
SUBOPT_0x77:
	__GETD2S 4
	__GETD1N 0x41200000
	CALL __MULF12
	__PUTD1S 4
	RET

;OPTIMIZER ADDED SUBROUTINE, CALLED 4 TIMES, CODE SIZE REDUCTION:21 WORDS
SUBOPT_0x78:
	__GETD1S 4
	__GETD2S 12
	CALL __CMPF12
	RET

;OPTIMIZER ADDED SUBROUTINE, CALLED 5 TIMES, CODE SIZE REDUCTION:5 WORDS
SUBOPT_0x79:
	__GETD2S 12
	RET

;OPTIMIZER ADDED SUBROUTINE, CALLED 2 TIMES, CODE SIZE REDUCTION:6 WORDS
SUBOPT_0x7A:
	__GETD1N 0x3DCCCCCD
	CALL __MULF12
	__PUTD1S 12
	SUBI R19,-LOW(1)
	RET

;OPTIMIZER ADDED SUBROUTINE, CALLED 3 TIMES, CODE SIZE REDUCTION:5 WORDS
SUBOPT_0x7B:
	__GETD1N 0x41200000
	CALL __MULF12
	RET

;OPTIMIZER ADDED SUBROUTINE, CALLED 3 TIMES, CODE SIZE REDUCTION:1 WORDS
SUBOPT_0x7C:
	__PUTD1S 12
	RET

;OPTIMIZER ADDED SUBROUTINE, CALLED 3 TIMES, CODE SIZE REDUCTION:5 WORDS
SUBOPT_0x7D:
	__GETD2N 0x3F000000
	CALL __ADDF12
	RET

;OPTIMIZER ADDED SUBROUTINE, CALLED 3 TIMES, CODE SIZE REDUCTION:5 WORDS
SUBOPT_0x7E:
	__GETD1N 0x3DCCCCCD
	CALL __MULF12
	RET

;OPTIMIZER ADDED SUBROUTINE, CALLED 2 TIMES, CODE SIZE REDUCTION:1 WORDS
SUBOPT_0x7F:
	LDD  R26,Y+8
	LDD  R27,Y+8+1
	ADIW R26,1
	STD  Y+8,R26
	STD  Y+8+1,R27
	SBIW R26,1
	RET

;OPTIMIZER ADDED SUBROUTINE, CALLED 3 TIMES, CODE SIZE REDUCTION:1 WORDS
SUBOPT_0x80:
	MOV  R30,R16
	SUBI R30,-LOW(48)
	ST   X,R30
	MOV  R30,R16
	RET

;OPTIMIZER ADDED SUBROUTINE, CALLED 5 TIMES, CODE SIZE REDUCTION:5 WORDS
SUBOPT_0x81:
	CALL __SWAPD12
	CALL __SUBF12
	RET

;OPTIMIZER ADDED SUBROUTINE, CALLED 4 TIMES, CODE SIZE REDUCTION:6 WORDS
SUBOPT_0x82:
	LDD  R30,Y+8
	LDD  R31,Y+8+1
	ADIW R30,1
	STD  Y+8,R30
	STD  Y+8+1,R31
	RET

;OPTIMIZER ADDED SUBROUTINE, CALLED 5 TIMES, CODE SIZE REDUCTION:13 WORDS
SUBOPT_0x83:
	ST   -Y,R18
	LDD  R26,Y+7
	LDD  R27,Y+7+1
	LDD  R30,Y+9
	LDD  R31,Y+9+1
	ICALL
	RET

;OPTIMIZER ADDED SUBROUTINE, CALLED 8 TIMES, CODE SIZE REDUCTION:25 WORDS
SUBOPT_0x84:
	__GETW1SX 90
	RET

;OPTIMIZER ADDED SUBROUTINE, CALLED 7 TIMES, CODE SIZE REDUCTION:21 WORDS
SUBOPT_0x85:
	SBIW R30,4
	__PUTW1SX 90
	RET

;OPTIMIZER ADDED SUBROUTINE, CALLED 4 TIMES, CODE SIZE REDUCTION:6 WORDS
SUBOPT_0x86:
	LDD  R26,Y+7
	LDD  R27,Y+7+1
	LDD  R30,Y+9
	LDD  R31,Y+9+1
	ICALL
	RET

;OPTIMIZER ADDED SUBROUTINE, CALLED 6 TIMES, CODE SIZE REDUCTION:17 WORDS
SUBOPT_0x87:
	__GETW2SX 90
	RET

;OPTIMIZER ADDED SUBROUTINE, CALLED 4 TIMES, CODE SIZE REDUCTION:3 WORDS
SUBOPT_0x88:
	__PUTD1S 10
	RET

;OPTIMIZER ADDED SUBROUTINE, CALLED 6 TIMES, CODE SIZE REDUCTION:7 WORDS
SUBOPT_0x89:
	RCALL SUBOPT_0x84
	RJMP SUBOPT_0x85

;OPTIMIZER ADDED SUBROUTINE, CALLED 4 TIMES, CODE SIZE REDUCTION:3 WORDS
SUBOPT_0x8A:
	__GETD1S 10
	RET

;OPTIMIZER ADDED SUBROUTINE, CALLED 2 TIMES, CODE SIZE REDUCTION:2 WORDS
SUBOPT_0x8B:
	STD  Y+14,R30
	STD  Y+14+1,R31
	LDD  R26,Y+14
	LDD  R27,Y+14+1
	CALL _strlen
	MOV  R17,R30
	RET

;OPTIMIZER ADDED SUBROUTINE, CALLED 4 TIMES, CODE SIZE REDUCTION:6 WORDS
SUBOPT_0x8C:
	RCALL SUBOPT_0x87
	ADIW R26,4
	CALL __GETW1P
	RET

;OPTIMIZER ADDED SUBROUTINE, CALLED 5 TIMES, CODE SIZE REDUCTION:5 WORDS
SUBOPT_0x8D:
	__PUTD1S 16
	RET

;OPTIMIZER ADDED SUBROUTINE, CALLED 2 TIMES, CODE SIZE REDUCTION:12 WORDS
SUBOPT_0x8E:
	ANDI R16,LOW(251)
	LDD  R30,Y+21
	ST   -Y,R30
	__GETW2SX 87
	__GETW1SX 89
	ICALL
	CPI  R21,0
	RET

;OPTIMIZER ADDED SUBROUTINE, CALLED 2 TIMES, CODE SIZE REDUCTION:3 WORDS
SUBOPT_0x8F:
	__GETD1S 16
	__GETD2S 10
	RET

;OPTIMIZER ADDED SUBROUTINE, CALLED 2 TIMES, CODE SIZE REDUCTION:1 WORDS
SUBOPT_0x90:
	MOVW R26,R28
	ADIW R26,12
	CALL __ADDW2R15
	CALL __GETW1P
	RET

;OPTIMIZER ADDED SUBROUTINE, CALLED 2 TIMES, CODE SIZE REDUCTION:1 WORDS
SUBOPT_0x91:
	CALL __PUTPARD2
	CALL __GETD2S0
	RET

;OPTIMIZER ADDED SUBROUTINE, CALLED 8 TIMES, CODE SIZE REDUCTION:11 WORDS
SUBOPT_0x92:
	__GETD2S 5
	RET

;OPTIMIZER ADDED SUBROUTINE, CALLED 2 TIMES, CODE SIZE REDUCTION:1 WORDS
SUBOPT_0x93:
	__PUTD1S 5
	RJMP SUBOPT_0x92

;OPTIMIZER ADDED SUBROUTINE, CALLED 3 TIMES, CODE SIZE REDUCTION:1 WORDS
SUBOPT_0x94:
	__GETD1S 5
	RET

;OPTIMIZER ADDED SUBROUTINE, CALLED 2 TIMES, CODE SIZE REDUCTION:1 WORDS
SUBOPT_0x95:
	CALL __SUBF12
	__PUTD1S 5
	RET

;OPTIMIZER ADDED SUBROUTINE, CALLED 2 TIMES, CODE SIZE REDUCTION:1 WORDS
SUBOPT_0x96:
	__GETD2S 1
	CALL __MULF12
	RET

;OPTIMIZER ADDED SUBROUTINE, CALLED 3 TIMES, CODE SIZE REDUCTION:1 WORDS
SUBOPT_0x97:
	LDD  R30,Y+6
	LDD  R31,Y+6+1
	ST   -Y,R31
	ST   -Y,R30
	RET

;OPTIMIZER ADDED SUBROUTINE, CALLED 5 TIMES, CODE SIZE REDUCTION:5 WORDS
SUBOPT_0x98:
	__PUTD1S 9
	RET

;OPTIMIZER ADDED SUBROUTINE, CALLED 5 TIMES, CODE SIZE REDUCTION:13 WORDS
SUBOPT_0x99:
	LDD  R26,Y+6
	LDD  R27,Y+6+1
	ADIW R26,1
	STD  Y+6,R26
	STD  Y+6+1,R27
	SBIW R26,1
	RET

;OPTIMIZER ADDED SUBROUTINE, CALLED 4 TIMES, CODE SIZE REDUCTION:3 WORDS
SUBOPT_0x9A:
	__GETD2S 2
	RET

;OPTIMIZER ADDED SUBROUTINE, CALLED 4 TIMES, CODE SIZE REDUCTION:3 WORDS
SUBOPT_0x9B:
	__PUTD1S 2
	RET

;OPTIMIZER ADDED SUBROUTINE, CALLED 3 TIMES, CODE SIZE REDUCTION:9 WORDS
SUBOPT_0x9C:
	__GETD1S 2
	__GETD2S 9
	RET

;OPTIMIZER ADDED SUBROUTINE, CALLED 3 TIMES, CODE SIZE REDUCTION:1 WORDS
SUBOPT_0x9D:
	__GETD2S 9
	RET


	.CSEG
_delay_ms:
	adiw r26,0
	breq __delay_ms1
__delay_ms0:
	__DELAY_USW 0x7D0
	wdr
	sbiw r26,1
	brne __delay_ms0
__delay_ms1:
	ret

__ANEGF1:
	SBIW R30,0
	SBCI R22,0
	SBCI R23,0
	BREQ __ANEGF10
	SUBI R23,0x80
__ANEGF10:
	RET

__ROUND_REPACK:
	TST  R21
	BRPL __REPACK
	CPI  R21,0x80
	BRNE __ROUND_REPACK0
	SBRS R30,0
	RJMP __REPACK
__ROUND_REPACK0:
	ADIW R30,1
	ADC  R22,R25
	ADC  R23,R25
	BRVS __REPACK1

__REPACK:
	LDI  R21,0x80
	EOR  R21,R23
	BRNE __REPACK0
	PUSH R21
	RJMP __ZERORES
__REPACK0:
	CPI  R21,0xFF
	BREQ __REPACK1
	LSL  R22
	LSL  R0
	ROR  R21
	ROR  R22
	MOV  R23,R21
	RET
__REPACK1:
	PUSH R21
	TST  R0
	BRMI __REPACK2
	RJMP __MAXRES
__REPACK2:
	RJMP __MINRES

__UNPACK:
	LDI  R21,0x80
	MOV  R1,R25
	AND  R1,R21
	LSL  R24
	ROL  R25
	EOR  R25,R21
	LSL  R21
	ROR  R24

__UNPACK1:
	LDI  R21,0x80
	MOV  R0,R23
	AND  R0,R21
	LSL  R22
	ROL  R23
	EOR  R23,R21
	LSL  R21
	ROR  R22
	RET

__CFD1U:
	SET
	RJMP __CFD1U0
__CFD1:
	CLT
__CFD1U0:
	PUSH R21
	RCALL __UNPACK1
	CPI  R23,0x80
	BRLO __CFD10
	CPI  R23,0xFF
	BRCC __CFD10
	RJMP __ZERORES
__CFD10:
	LDI  R21,22
	SUB  R21,R23
	BRPL __CFD11
	NEG  R21
	CPI  R21,8
	BRTC __CFD19
	CPI  R21,9
__CFD19:
	BRLO __CFD17
	SER  R30
	SER  R31
	SER  R22
	LDI  R23,0x7F
	BLD  R23,7
	RJMP __CFD15
__CFD17:
	CLR  R23
	TST  R21
	BREQ __CFD15
__CFD18:
	LSL  R30
	ROL  R31
	ROL  R22
	ROL  R23
	DEC  R21
	BRNE __CFD18
	RJMP __CFD15
__CFD11:
	CLR  R23
__CFD12:
	CPI  R21,8
	BRLO __CFD13
	MOV  R30,R31
	MOV  R31,R22
	MOV  R22,R23
	SUBI R21,8
	RJMP __CFD12
__CFD13:
	TST  R21
	BREQ __CFD15
__CFD14:
	LSR  R23
	ROR  R22
	ROR  R31
	ROR  R30
	DEC  R21
	BRNE __CFD14
__CFD15:
	TST  R0
	BRPL __CFD16
	RCALL __ANEGD1
__CFD16:
	POP  R21
	RET

__CDF1U:
	SET
	RJMP __CDF1U0
__CDF1:
	CLT
__CDF1U0:
	SBIW R30,0
	SBCI R22,0
	SBCI R23,0
	BREQ __CDF10
	CLR  R0
	BRTS __CDF11
	TST  R23
	BRPL __CDF11
	COM  R0
	RCALL __ANEGD1
__CDF11:
	MOV  R1,R23
	LDI  R23,30
	TST  R1
__CDF12:
	BRMI __CDF13
	DEC  R23
	LSL  R30
	ROL  R31
	ROL  R22
	ROL  R1
	RJMP __CDF12
__CDF13:
	MOV  R30,R31
	MOV  R31,R22
	MOV  R22,R1
	PUSH R21
	RCALL __REPACK
	POP  R21
__CDF10:
	RET

__SWAPACC:
	PUSH R20
	MOVW R20,R30
	MOVW R30,R26
	MOVW R26,R20
	MOVW R20,R22
	MOVW R22,R24
	MOVW R24,R20
	MOV  R20,R0
	MOV  R0,R1
	MOV  R1,R20
	POP  R20
	RET

__UADD12:
	ADD  R30,R26
	ADC  R31,R27
	ADC  R22,R24
	RET

__NEGMAN1:
	COM  R30
	COM  R31
	COM  R22
	SUBI R30,-1
	SBCI R31,-1
	SBCI R22,-1
	RET

__SUBF12:
	PUSH R21
	RCALL __UNPACK
	CPI  R25,0x80
	BREQ __ADDF129
	LDI  R21,0x80
	EOR  R1,R21

	RJMP __ADDF120

__ADDF12:
	PUSH R21
	RCALL __UNPACK
	CPI  R25,0x80
	BREQ __ADDF129

__ADDF120:
	CPI  R23,0x80
	BREQ __ADDF128
__ADDF121:
	MOV  R21,R23
	SUB  R21,R25
	BRVS __ADDF1211
	BRPL __ADDF122
	RCALL __SWAPACC
	RJMP __ADDF121
__ADDF122:
	CPI  R21,24
	BRLO __ADDF123
	CLR  R26
	CLR  R27
	CLR  R24
__ADDF123:
	CPI  R21,8
	BRLO __ADDF124
	MOV  R26,R27
	MOV  R27,R24
	CLR  R24
	SUBI R21,8
	RJMP __ADDF123
__ADDF124:
	TST  R21
	BREQ __ADDF126
__ADDF125:
	LSR  R24
	ROR  R27
	ROR  R26
	DEC  R21
	BRNE __ADDF125
__ADDF126:
	MOV  R21,R0
	EOR  R21,R1
	BRMI __ADDF127
	RCALL __UADD12
	BRCC __ADDF129
	ROR  R22
	ROR  R31
	ROR  R30
	INC  R23
	BRVC __ADDF129
	RJMP __MAXRES
__ADDF128:
	RCALL __SWAPACC
__ADDF129:
	RCALL __REPACK
	POP  R21
	RET
__ADDF1211:
	BRCC __ADDF128
	RJMP __ADDF129
__ADDF127:
	SUB  R30,R26
	SBC  R31,R27
	SBC  R22,R24
	BREQ __ZERORES
	BRCC __ADDF1210
	COM  R0
	RCALL __NEGMAN1
__ADDF1210:
	TST  R22
	BRMI __ADDF129
	LSL  R30
	ROL  R31
	ROL  R22
	DEC  R23
	BRVC __ADDF1210

__ZERORES:
	CLR  R30
	CLR  R31
	CLR  R22
	CLR  R23
	POP  R21
	RET

__MINRES:
	SER  R30
	SER  R31
	LDI  R22,0x7F
	SER  R23
	POP  R21
	RET

__MAXRES:
	SER  R30
	SER  R31
	LDI  R22,0x7F
	LDI  R23,0x7F
	POP  R21
	RET

__MULF12:
	PUSH R21
	RCALL __UNPACK
	CPI  R23,0x80
	BREQ __ZERORES
	CPI  R25,0x80
	BREQ __ZERORES
	EOR  R0,R1
	SEC
	ADC  R23,R25
	BRVC __MULF124
	BRLT __ZERORES
__MULF125:
	TST  R0
	BRMI __MINRES
	RJMP __MAXRES
__MULF124:
	PUSH R0
	PUSH R17
	PUSH R18
	PUSH R19
	PUSH R20
	CLR  R17
	CLR  R18
	CLR  R25
	MUL  R22,R24
	MOVW R20,R0
	MUL  R24,R31
	MOV  R19,R0
	ADD  R20,R1
	ADC  R21,R25
	MUL  R22,R27
	ADD  R19,R0
	ADC  R20,R1
	ADC  R21,R25
	MUL  R24,R30
	RCALL __MULF126
	MUL  R27,R31
	RCALL __MULF126
	MUL  R22,R26
	RCALL __MULF126
	MUL  R27,R30
	RCALL __MULF127
	MUL  R26,R31
	RCALL __MULF127
	MUL  R26,R30
	ADD  R17,R1
	ADC  R18,R25
	ADC  R19,R25
	ADC  R20,R25
	ADC  R21,R25
	MOV  R30,R19
	MOV  R31,R20
	MOV  R22,R21
	MOV  R21,R18
	POP  R20
	POP  R19
	POP  R18
	POP  R17
	POP  R0
	TST  R22
	BRMI __MULF122
	LSL  R21
	ROL  R30
	ROL  R31
	ROL  R22
	RJMP __MULF123
__MULF122:
	INC  R23
	BRVS __MULF125
__MULF123:
	RCALL __ROUND_REPACK
	POP  R21
	RET

__MULF127:
	ADD  R17,R0
	ADC  R18,R1
	ADC  R19,R25
	RJMP __MULF128
__MULF126:
	ADD  R18,R0
	ADC  R19,R1
__MULF128:
	ADC  R20,R25
	ADC  R21,R25
	RET

__DIVF21:
	PUSH R21
	RCALL __UNPACK
	CPI  R23,0x80
	BRNE __DIVF210
	TST  R1
__DIVF211:
	BRPL __DIVF219
	RJMP __MINRES
__DIVF219:
	RJMP __MAXRES
__DIVF210:
	CPI  R25,0x80
	BRNE __DIVF218
__DIVF217:
	RJMP __ZERORES
__DIVF218:
	EOR  R0,R1
	SEC
	SBC  R25,R23
	BRVC __DIVF216
	BRLT __DIVF217
	TST  R0
	RJMP __DIVF211
__DIVF216:
	MOV  R23,R25
	PUSH R17
	PUSH R18
	PUSH R19
	PUSH R20
	CLR  R1
	CLR  R17
	CLR  R18
	CLR  R19
	CLR  R20
	CLR  R21
	LDI  R25,32
__DIVF212:
	CP   R26,R30
	CPC  R27,R31
	CPC  R24,R22
	CPC  R20,R17
	BRLO __DIVF213
	SUB  R26,R30
	SBC  R27,R31
	SBC  R24,R22
	SBC  R20,R17
	SEC
	RJMP __DIVF214
__DIVF213:
	CLC
__DIVF214:
	ROL  R21
	ROL  R18
	ROL  R19
	ROL  R1
	ROL  R26
	ROL  R27
	ROL  R24
	ROL  R20
	DEC  R25
	BRNE __DIVF212
	MOVW R30,R18
	MOV  R22,R1
	POP  R20
	POP  R19
	POP  R18
	POP  R17
	TST  R22
	BRMI __DIVF215
	LSL  R21
	ROL  R30
	ROL  R31
	ROL  R22
	DEC  R23
	BRVS __DIVF217
__DIVF215:
	RCALL __ROUND_REPACK
	POP  R21
	RET

__CMPF12:
	TST  R25
	BRMI __CMPF120
	TST  R23
	BRMI __CMPF121
	CP   R25,R23
	BRLO __CMPF122
	BRNE __CMPF121
	CP   R26,R30
	CPC  R27,R31
	CPC  R24,R22
	BRLO __CMPF122
	BREQ __CMPF123
__CMPF121:
	CLZ
	CLC
	RET
__CMPF122:
	CLZ
	SEC
	RET
__CMPF123:
	SEZ
	CLC
	RET
__CMPF120:
	TST  R23
	BRPL __CMPF122
	CP   R25,R23
	BRLO __CMPF121
	BRNE __CMPF122
	CP   R30,R26
	CPC  R31,R27
	CPC  R22,R24
	BRLO __CMPF122
	BREQ __CMPF123
	RJMP __CMPF121

__ADDW2R15:
	CLR  R0
	ADD  R26,R15
	ADC  R27,R0
	RET

__ANEGW1:
	NEG  R31
	NEG  R30
	SBCI R31,0
	RET

__ANEGD1:
	COM  R31
	COM  R22
	COM  R23
	NEG  R30
	SBCI R31,-1
	SBCI R22,-1
	SBCI R23,-1
	RET

__LSLB12:
	TST  R30
	MOV  R0,R30
	MOV  R30,R26
	BREQ __LSLB12R
__LSLB12L:
	LSL  R30
	DEC  R0
	BRNE __LSLB12L
__LSLB12R:
	RET

__LSRB12:
	TST  R30
	MOV  R0,R30
	MOV  R30,R26
	BREQ __LSRB12R
__LSRB12L:
	LSR  R30
	DEC  R0
	BRNE __LSRB12L
__LSRB12R:
	RET

__LSLW2:
	LSL  R30
	ROL  R31
	LSL  R30
	ROL  R31
	RET

__ASRW2:
	ASR  R31
	ROR  R30
	ASR  R31
	ROR  R30
	RET

__CBD1:
	MOV  R31,R30
	ADD  R31,R31
	SBC  R31,R31
	MOV  R22,R31
	MOV  R23,R31
	RET

__CWD1:
	MOV  R22,R31
	ADD  R22,R22
	SBC  R22,R22
	MOV  R23,R22
	RET

__CWD2:
	MOV  R24,R27
	ADD  R24,R24
	SBC  R24,R24
	MOV  R25,R24
	RET

__MULW12U:
	MUL  R31,R26
	MOV  R31,R0
	MUL  R30,R27
	ADD  R31,R0
	MUL  R30,R26
	MOV  R30,R0
	ADD  R31,R1
	RET

__MULD12U:
	MUL  R23,R26
	MOV  R23,R0
	MUL  R22,R27
	ADD  R23,R0
	MUL  R31,R24
	ADD  R23,R0
	MUL  R30,R25
	ADD  R23,R0
	MUL  R22,R26
	MOV  R22,R0
	ADD  R23,R1
	MUL  R31,R27
	ADD  R22,R0
	ADC  R23,R1
	MUL  R30,R24
	ADD  R22,R0
	ADC  R23,R1
	CLR  R24
	MUL  R31,R26
	MOV  R31,R0
	ADD  R22,R1
	ADC  R23,R24
	MUL  R30,R27
	ADD  R31,R0
	ADC  R22,R1
	ADC  R23,R24
	MUL  R30,R26
	MOV  R30,R0
	ADD  R31,R1
	ADC  R22,R24
	ADC  R23,R24
	RET

__MULW12:
	RCALL __CHKSIGNW
	RCALL __MULW12U
	BRTC __MULW121
	RCALL __ANEGW1
__MULW121:
	RET

__DIVB21U:
	CLR  R0
	LDI  R25,8
__DIVB21U1:
	LSL  R26
	ROL  R0
	SUB  R0,R30
	BRCC __DIVB21U2
	ADD  R0,R30
	RJMP __DIVB21U3
__DIVB21U2:
	SBR  R26,1
__DIVB21U3:
	DEC  R25
	BRNE __DIVB21U1
	MOV  R30,R26
	MOV  R26,R0
	RET

__DIVB21:
	RCALL __CHKSIGNB
	RCALL __DIVB21U
	BRTC __DIVB211
	NEG  R30
__DIVB211:
	RET

__DIVW21U:
	CLR  R0
	CLR  R1
	LDI  R25,16
__DIVW21U1:
	LSL  R26
	ROL  R27
	ROL  R0
	ROL  R1
	SUB  R0,R30
	SBC  R1,R31
	BRCC __DIVW21U2
	ADD  R0,R30
	ADC  R1,R31
	RJMP __DIVW21U3
__DIVW21U2:
	SBR  R26,1
__DIVW21U3:
	DEC  R25
	BRNE __DIVW21U1
	MOVW R30,R26
	MOVW R26,R0
	RET

__DIVW21:
	RCALL __CHKSIGNW
	RCALL __DIVW21U
	BRTC __DIVW211
	RCALL __ANEGW1
__DIVW211:
	RET

__DIVD21U:
	PUSH R19
	PUSH R20
	PUSH R21
	CLR  R0
	CLR  R1
	CLR  R20
	CLR  R21
	LDI  R19,32
__DIVD21U1:
	LSL  R26
	ROL  R27
	ROL  R24
	ROL  R25
	ROL  R0
	ROL  R1
	ROL  R20
	ROL  R21
	SUB  R0,R30
	SBC  R1,R31
	SBC  R20,R22
	SBC  R21,R23
	BRCC __DIVD21U2
	ADD  R0,R30
	ADC  R1,R31
	ADC  R20,R22
	ADC  R21,R23
	RJMP __DIVD21U3
__DIVD21U2:
	SBR  R26,1
__DIVD21U3:
	DEC  R19
	BRNE __DIVD21U1
	MOVW R30,R26
	MOVW R22,R24
	MOVW R26,R0
	MOVW R24,R20
	POP  R21
	POP  R20
	POP  R19
	RET

__MODB21:
	CLT
	SBRS R26,7
	RJMP __MODB211
	NEG  R26
	SET
__MODB211:
	SBRC R30,7
	NEG  R30
	RCALL __DIVB21U
	MOV  R30,R26
	BRTC __MODB212
	NEG  R30
__MODB212:
	RET

__MODW21:
	CLT
	SBRS R27,7
	RJMP __MODW211
	COM  R26
	COM  R27
	ADIW R26,1
	SET
__MODW211:
	SBRC R31,7
	RCALL __ANEGW1
	RCALL __DIVW21U
	MOVW R30,R26
	BRTC __MODW212
	RCALL __ANEGW1
__MODW212:
	RET

__MODD21U:
	RCALL __DIVD21U
	MOVW R30,R26
	MOVW R22,R24
	RET

__CHKSIGNB:
	CLT
	SBRS R30,7
	RJMP __CHKSB1
	NEG  R30
	SET
__CHKSB1:
	SBRS R26,7
	RJMP __CHKSB2
	NEG  R26
	BLD  R0,0
	INC  R0
	BST  R0,0
__CHKSB2:
	RET

__CHKSIGNW:
	CLT
	SBRS R31,7
	RJMP __CHKSW1
	RCALL __ANEGW1
	SET
__CHKSW1:
	SBRS R27,7
	RJMP __CHKSW2
	COM  R26
	COM  R27
	ADIW R26,1
	BLD  R0,0
	INC  R0
	BST  R0,0
__CHKSW2:
	RET

__GETW1P:
	LD   R30,X+
	LD   R31,X
	SBIW R26,1
	RET

__GETD1P:
	LD   R30,X+
	LD   R31,X+
	LD   R22,X+
	LD   R23,X
	SBIW R26,3
	RET

__GETD1S0:
	LD   R30,Y
	LDD  R31,Y+1
	LDD  R22,Y+2
	LDD  R23,Y+3
	RET

__GETD2S0:
	LD   R26,Y
	LDD  R27,Y+1
	LDD  R24,Y+2
	LDD  R25,Y+3
	RET

__PUTD1S0:
	ST   Y,R30
	STD  Y+1,R31
	STD  Y+2,R22
	STD  Y+3,R23
	RET

__PUTPARD1:
	ST   -Y,R23
	ST   -Y,R22
	ST   -Y,R31
	ST   -Y,R30
	RET

__PUTPARD2:
	ST   -Y,R25
	ST   -Y,R24
	ST   -Y,R27
	ST   -Y,R26
	RET

__CDF2U:
	SET
	RJMP __CDF2U0
__CDF2:
	CLT
__CDF2U0:
	RCALL __SWAPD12
	RCALL __CDF1U0

__SWAPD12:
	MOV  R1,R24
	MOV  R24,R22
	MOV  R22,R1
	MOV  R1,R25
	MOV  R25,R23
	MOV  R23,R1

__SWAPW12:
	MOV  R1,R27
	MOV  R27,R31
	MOV  R31,R1

__SWAPB12:
	MOV  R1,R26
	MOV  R26,R30
	MOV  R30,R1
	RET

__EEPROMRDB:
	SBIC EECR,EEWE
	RJMP __EEPROMRDB
	PUSH R31
	IN   R31,SREG
	CLI
	OUT  EEARL,R26
	OUT  EEARH,R27
	SBI  EECR,EERE
	IN   R30,EEDR
	OUT  SREG,R31
	POP  R31
	RET

__EEPROMWRB:
	SBIS EECR,EEWE
	RJMP __EEPROMWRB1
	WDR
	RJMP __EEPROMWRB
__EEPROMWRB1:
	IN   R25,SREG
	CLI
	OUT  EEARL,R26
	OUT  EEARH,R27
	SBI  EECR,EERE
	IN   R24,EEDR
	CP   R30,R24
	BREQ __EEPROMWRB0
	OUT  EEDR,R30
	SBI  EECR,EEMWE
	SBI  EECR,EEWE
__EEPROMWRB0:
	OUT  SREG,R25
	RET

__COPYMML:
	CLR  R25
__COPYMM:
	PUSH R30
	PUSH R31
__COPYMM0:
	LD   R22,Z+
	ST   X+,R22
	SBIW R24,1
	BRNE __COPYMM0
	POP  R31
	POP  R30
	RET

__CPD10:
	SBIW R30,0
	SBCI R22,0
	SBCI R23,0
	RET

__CPW02:
	CLR  R0
	CP   R0,R26
	CPC  R0,R27
	RET

__CPD12:
	CP   R30,R26
	CPC  R31,R27
	CPC  R22,R24
	CPC  R23,R25
	RET

__SAVELOCR6:
	ST   -Y,R21
__SAVELOCR5:
	ST   -Y,R20
__SAVELOCR4:
	ST   -Y,R19
__SAVELOCR3:
	ST   -Y,R18
__SAVELOCR2:
	ST   -Y,R17
	ST   -Y,R16
	RET

__LOADLOCR6:
	LDD  R21,Y+5
__LOADLOCR5:
	LDD  R20,Y+4
__LOADLOCR4:
	LDD  R19,Y+3
__LOADLOCR3:
	LDD  R18,Y+2
__LOADLOCR2:
	LDD  R17,Y+1
	LD   R16,Y
	RET

__INITLOCB:
__INITLOCW:
	ADD  R26,R28
	ADC  R27,R29
__INITLOC0:
	LPM  R0,Z+
	ST   X+,R0
	DEC  R24
	BRNE __INITLOC0
	RET

;END OF CODE MARKER
__END_OF_CODE:
